
ctarget:     file format elf64-x86-64


Disassembly of section .init:

0000000000400c48 <_init>:
  400c48:	48 83 ec 08          	sub    $0x8,%rsp
  400c4c:	48 8b 05 a5 43 20 00 	mov    0x2043a5(%rip),%rax        # 604ff8 <__gmon_start__>
  400c53:	48 85 c0             	test   %rax,%rax
  400c56:	74 05                	je     400c5d <_init+0x15>
  400c58:	e8 43 02 00 00       	callq  400ea0 <__gmon_start__@plt>
  400c5d:	48 83 c4 08          	add    $0x8,%rsp
  400c61:	c3                   	retq   

Disassembly of section .plt:

0000000000400c70 <.plt>:
  400c70:	ff 35 92 43 20 00    	pushq  0x204392(%rip)        # 605008 <_GLOBAL_OFFSET_TABLE_+0x8>
  400c76:	ff 25 94 43 20 00    	jmpq   *0x204394(%rip)        # 605010 <_GLOBAL_OFFSET_TABLE_+0x10>
  400c7c:	0f 1f 40 00          	nopl   0x0(%rax)

0000000000400c80 <strcasecmp@plt>:
  400c80:	ff 25 92 43 20 00    	jmpq   *0x204392(%rip)        # 605018 <strcasecmp@GLIBC_2.2.5>
  400c86:	68 00 00 00 00       	pushq  $0x0
  400c8b:	e9 e0 ff ff ff       	jmpq   400c70 <.plt>

0000000000400c90 <__errno_location@plt>:
  400c90:	ff 25 8a 43 20 00    	jmpq   *0x20438a(%rip)        # 605020 <__errno_location@GLIBC_2.2.5>
  400c96:	68 01 00 00 00       	pushq  $0x1
  400c9b:	e9 d0 ff ff ff       	jmpq   400c70 <.plt>

0000000000400ca0 <srandom@plt>:
  400ca0:	ff 25 82 43 20 00    	jmpq   *0x204382(%rip)        # 605028 <srandom@GLIBC_2.2.5>
  400ca6:	68 02 00 00 00       	pushq  $0x2
  400cab:	e9 c0 ff ff ff       	jmpq   400c70 <.plt>

0000000000400cb0 <strncmp@plt>:
  400cb0:	ff 25 7a 43 20 00    	jmpq   *0x20437a(%rip)        # 605030 <strncmp@GLIBC_2.2.5>
  400cb6:	68 03 00 00 00       	pushq  $0x3
  400cbb:	e9 b0 ff ff ff       	jmpq   400c70 <.plt>

0000000000400cc0 <strcpy@plt>:
  400cc0:	ff 25 72 43 20 00    	jmpq   *0x204372(%rip)        # 605038 <strcpy@GLIBC_2.2.5>
  400cc6:	68 04 00 00 00       	pushq  $0x4
  400ccb:	e9 a0 ff ff ff       	jmpq   400c70 <.plt>

0000000000400cd0 <puts@plt>:
  400cd0:	ff 25 6a 43 20 00    	jmpq   *0x20436a(%rip)        # 605040 <puts@GLIBC_2.2.5>
  400cd6:	68 05 00 00 00       	pushq  $0x5
  400cdb:	e9 90 ff ff ff       	jmpq   400c70 <.plt>

0000000000400ce0 <write@plt>:
  400ce0:	ff 25 62 43 20 00    	jmpq   *0x204362(%rip)        # 605048 <write@GLIBC_2.2.5>
  400ce6:	68 06 00 00 00       	pushq  $0x6
  400ceb:	e9 80 ff ff ff       	jmpq   400c70 <.plt>

0000000000400cf0 <__stack_chk_fail@plt>:
  400cf0:	ff 25 5a 43 20 00    	jmpq   *0x20435a(%rip)        # 605050 <__stack_chk_fail@GLIBC_2.4>
  400cf6:	68 07 00 00 00       	pushq  $0x7
  400cfb:	e9 70 ff ff ff       	jmpq   400c70 <.plt>

0000000000400d00 <mmap@plt>:
  400d00:	ff 25 52 43 20 00    	jmpq   *0x204352(%rip)        # 605058 <mmap@GLIBC_2.2.5>
  400d06:	68 08 00 00 00       	pushq  $0x8
  400d0b:	e9 60 ff ff ff       	jmpq   400c70 <.plt>

0000000000400d10 <memset@plt>:
  400d10:	ff 25 4a 43 20 00    	jmpq   *0x20434a(%rip)        # 605060 <memset@GLIBC_2.2.5>
  400d16:	68 09 00 00 00       	pushq  $0x9
  400d1b:	e9 50 ff ff ff       	jmpq   400c70 <.plt>

0000000000400d20 <alarm@plt>:
  400d20:	ff 25 42 43 20 00    	jmpq   *0x204342(%rip)        # 605068 <alarm@GLIBC_2.2.5>
  400d26:	68 0a 00 00 00       	pushq  $0xa
  400d2b:	e9 40 ff ff ff       	jmpq   400c70 <.plt>

0000000000400d30 <close@plt>:
  400d30:	ff 25 3a 43 20 00    	jmpq   *0x20433a(%rip)        # 605070 <close@GLIBC_2.2.5>
  400d36:	68 0b 00 00 00       	pushq  $0xb
  400d3b:	e9 30 ff ff ff       	jmpq   400c70 <.plt>

0000000000400d40 <read@plt>:
  400d40:	ff 25 32 43 20 00    	jmpq   *0x204332(%rip)        # 605078 <read@GLIBC_2.2.5>
  400d46:	68 0c 00 00 00       	pushq  $0xc
  400d4b:	e9 20 ff ff ff       	jmpq   400c70 <.plt>

0000000000400d50 <__libc_start_main@plt>:
  400d50:	ff 25 2a 43 20 00    	jmpq   *0x20432a(%rip)        # 605080 <__libc_start_main@GLIBC_2.2.5>
  400d56:	68 0d 00 00 00       	pushq  $0xd
  400d5b:	e9 10 ff ff ff       	jmpq   400c70 <.plt>

0000000000400d60 <signal@plt>:
  400d60:	ff 25 22 43 20 00    	jmpq   *0x204322(%rip)        # 605088 <signal@GLIBC_2.2.5>
  400d66:	68 0e 00 00 00       	pushq  $0xe
  400d6b:	e9 00 ff ff ff       	jmpq   400c70 <.plt>

0000000000400d70 <gethostbyname@plt>:
  400d70:	ff 25 1a 43 20 00    	jmpq   *0x20431a(%rip)        # 605090 <gethostbyname@GLIBC_2.2.5>
  400d76:	68 0f 00 00 00       	pushq  $0xf
  400d7b:	e9 f0 fe ff ff       	jmpq   400c70 <.plt>

0000000000400d80 <__memmove_chk@plt>:
  400d80:	ff 25 12 43 20 00    	jmpq   *0x204312(%rip)        # 605098 <__memmove_chk@GLIBC_2.3.4>
  400d86:	68 10 00 00 00       	pushq  $0x10
  400d8b:	e9 e0 fe ff ff       	jmpq   400c70 <.plt>

0000000000400d90 <strtol@plt>:
  400d90:	ff 25 0a 43 20 00    	jmpq   *0x20430a(%rip)        # 6050a0 <strtol@GLIBC_2.2.5>
  400d96:	68 11 00 00 00       	pushq  $0x11
  400d9b:	e9 d0 fe ff ff       	jmpq   400c70 <.plt>

0000000000400da0 <memcpy@plt>:
  400da0:	ff 25 02 43 20 00    	jmpq   *0x204302(%rip)        # 6050a8 <memcpy@GLIBC_2.14>
  400da6:	68 12 00 00 00       	pushq  $0x12
  400dab:	e9 c0 fe ff ff       	jmpq   400c70 <.plt>

0000000000400db0 <time@plt>:
  400db0:	ff 25 fa 42 20 00    	jmpq   *0x2042fa(%rip)        # 6050b0 <time@GLIBC_2.2.5>
  400db6:	68 13 00 00 00       	pushq  $0x13
  400dbb:	e9 b0 fe ff ff       	jmpq   400c70 <.plt>

0000000000400dc0 <random@plt>:
  400dc0:	ff 25 f2 42 20 00    	jmpq   *0x2042f2(%rip)        # 6050b8 <random@GLIBC_2.2.5>
  400dc6:	68 14 00 00 00       	pushq  $0x14
  400dcb:	e9 a0 fe ff ff       	jmpq   400c70 <.plt>

0000000000400dd0 <_IO_getc@plt>:
  400dd0:	ff 25 ea 42 20 00    	jmpq   *0x2042ea(%rip)        # 6050c0 <_IO_getc@GLIBC_2.2.5>
  400dd6:	68 15 00 00 00       	pushq  $0x15
  400ddb:	e9 90 fe ff ff       	jmpq   400c70 <.plt>

0000000000400de0 <__isoc99_sscanf@plt>:
  400de0:	ff 25 e2 42 20 00    	jmpq   *0x2042e2(%rip)        # 6050c8 <__isoc99_sscanf@GLIBC_2.7>
  400de6:	68 16 00 00 00       	pushq  $0x16
  400deb:	e9 80 fe ff ff       	jmpq   400c70 <.plt>

0000000000400df0 <munmap@plt>:
  400df0:	ff 25 da 42 20 00    	jmpq   *0x2042da(%rip)        # 6050d0 <munmap@GLIBC_2.2.5>
  400df6:	68 17 00 00 00       	pushq  $0x17
  400dfb:	e9 70 fe ff ff       	jmpq   400c70 <.plt>

0000000000400e00 <__printf_chk@plt>:
  400e00:	ff 25 d2 42 20 00    	jmpq   *0x2042d2(%rip)        # 6050d8 <__printf_chk@GLIBC_2.3.4>
  400e06:	68 18 00 00 00       	pushq  $0x18
  400e0b:	e9 60 fe ff ff       	jmpq   400c70 <.plt>

0000000000400e10 <fopen@plt>:
  400e10:	ff 25 ca 42 20 00    	jmpq   *0x2042ca(%rip)        # 6050e0 <fopen@GLIBC_2.2.5>
  400e16:	68 19 00 00 00       	pushq  $0x19
  400e1b:	e9 50 fe ff ff       	jmpq   400c70 <.plt>

0000000000400e20 <getopt@plt>:
  400e20:	ff 25 c2 42 20 00    	jmpq   *0x2042c2(%rip)        # 6050e8 <getopt@GLIBC_2.2.5>
  400e26:	68 1a 00 00 00       	pushq  $0x1a
  400e2b:	e9 40 fe ff ff       	jmpq   400c70 <.plt>

0000000000400e30 <strtoul@plt>:
  400e30:	ff 25 ba 42 20 00    	jmpq   *0x2042ba(%rip)        # 6050f0 <strtoul@GLIBC_2.2.5>
  400e36:	68 1b 00 00 00       	pushq  $0x1b
  400e3b:	e9 30 fe ff ff       	jmpq   400c70 <.plt>

0000000000400e40 <gethostname@plt>:
  400e40:	ff 25 b2 42 20 00    	jmpq   *0x2042b2(%rip)        # 6050f8 <gethostname@GLIBC_2.2.5>
  400e46:	68 1c 00 00 00       	pushq  $0x1c
  400e4b:	e9 20 fe ff ff       	jmpq   400c70 <.plt>

0000000000400e50 <exit@plt>:
  400e50:	ff 25 aa 42 20 00    	jmpq   *0x2042aa(%rip)        # 605100 <exit@GLIBC_2.2.5>
  400e56:	68 1d 00 00 00       	pushq  $0x1d
  400e5b:	e9 10 fe ff ff       	jmpq   400c70 <.plt>

0000000000400e60 <connect@plt>:
  400e60:	ff 25 a2 42 20 00    	jmpq   *0x2042a2(%rip)        # 605108 <connect@GLIBC_2.2.5>
  400e66:	68 1e 00 00 00       	pushq  $0x1e
  400e6b:	e9 00 fe ff ff       	jmpq   400c70 <.plt>

0000000000400e70 <__fprintf_chk@plt>:
  400e70:	ff 25 9a 42 20 00    	jmpq   *0x20429a(%rip)        # 605110 <__fprintf_chk@GLIBC_2.3.4>
  400e76:	68 1f 00 00 00       	pushq  $0x1f
  400e7b:	e9 f0 fd ff ff       	jmpq   400c70 <.plt>

0000000000400e80 <__sprintf_chk@plt>:
  400e80:	ff 25 92 42 20 00    	jmpq   *0x204292(%rip)        # 605118 <__sprintf_chk@GLIBC_2.3.4>
  400e86:	68 20 00 00 00       	pushq  $0x20
  400e8b:	e9 e0 fd ff ff       	jmpq   400c70 <.plt>

0000000000400e90 <socket@plt>:
  400e90:	ff 25 8a 42 20 00    	jmpq   *0x20428a(%rip)        # 605120 <socket@GLIBC_2.2.5>
  400e96:	68 21 00 00 00       	pushq  $0x21
  400e9b:	e9 d0 fd ff ff       	jmpq   400c70 <.plt>

Disassembly of section .plt.got:

0000000000400ea0 <__gmon_start__@plt>:
  400ea0:	ff 25 52 41 20 00    	jmpq   *0x204152(%rip)        # 604ff8 <__gmon_start__>
  400ea6:	66 90                	xchg   %ax,%ax

Disassembly of section .text:

0000000000400eb0 <_start>:
  400eb0:	31 ed                	xor    %ebp,%ebp
  400eb2:	49 89 d1             	mov    %rdx,%r9
  400eb5:	5e                   	pop    %rsi
  400eb6:	48 89 e2             	mov    %rsp,%rdx
  400eb9:	48 83 e4 f0          	and    $0xfffffffffffffff0,%rsp
  400ebd:	50                   	push   %rax
  400ebe:	54                   	push   %rsp
  400ebf:	49 c7 c0 00 2f 40 00 	mov    $0x402f00,%r8
  400ec6:	48 c7 c1 90 2e 40 00 	mov    $0x402e90,%rcx
  400ecd:	48 c7 c7 b5 11 40 00 	mov    $0x4011b5,%rdi
  400ed4:	e8 77 fe ff ff       	callq  400d50 <__libc_start_main@plt>
  400ed9:	f4                   	hlt    
  400eda:	66 0f 1f 44 00 00    	nopw   0x0(%rax,%rax,1)

0000000000400ee0 <deregister_tm_clones>:
  400ee0:	b8 b7 54 60 00       	mov    $0x6054b7,%eax
  400ee5:	55                   	push   %rbp
  400ee6:	48 2d b0 54 60 00    	sub    $0x6054b0,%rax
  400eec:	48 83 f8 0e          	cmp    $0xe,%rax
  400ef0:	48 89 e5             	mov    %rsp,%rbp
  400ef3:	76 1b                	jbe    400f10 <deregister_tm_clones+0x30>
  400ef5:	b8 00 00 00 00       	mov    $0x0,%eax
  400efa:	48 85 c0             	test   %rax,%rax
  400efd:	74 11                	je     400f10 <deregister_tm_clones+0x30>
  400eff:	5d                   	pop    %rbp
  400f00:	bf b0 54 60 00       	mov    $0x6054b0,%edi
  400f05:	ff e0                	jmpq   *%rax
  400f07:	66 0f 1f 84 00 00 00 	nopw   0x0(%rax,%rax,1)
  400f0e:	00 00 
  400f10:	5d                   	pop    %rbp
  400f11:	c3                   	retq   
  400f12:	0f 1f 40 00          	nopl   0x0(%rax)
  400f16:	66 2e 0f 1f 84 00 00 	nopw   %cs:0x0(%rax,%rax,1)
  400f1d:	00 00 00 

0000000000400f20 <register_tm_clones>:
  400f20:	be b0 54 60 00       	mov    $0x6054b0,%esi
  400f25:	55                   	push   %rbp
  400f26:	48 81 ee b0 54 60 00 	sub    $0x6054b0,%rsi
  400f2d:	48 c1 fe 03          	sar    $0x3,%rsi
  400f31:	48 89 e5             	mov    %rsp,%rbp
  400f34:	48 89 f0             	mov    %rsi,%rax
  400f37:	48 c1 e8 3f          	shr    $0x3f,%rax
  400f3b:	48 01 c6             	add    %rax,%rsi
  400f3e:	48 d1 fe             	sar    %rsi
  400f41:	74 15                	je     400f58 <register_tm_clones+0x38>
  400f43:	b8 00 00 00 00       	mov    $0x0,%eax
  400f48:	48 85 c0             	test   %rax,%rax
  400f4b:	74 0b                	je     400f58 <register_tm_clones+0x38>
  400f4d:	5d                   	pop    %rbp
  400f4e:	bf b0 54 60 00       	mov    $0x6054b0,%edi
  400f53:	ff e0                	jmpq   *%rax
  400f55:	0f 1f 00             	nopl   (%rax)
  400f58:	5d                   	pop    %rbp
  400f59:	c3                   	retq   
  400f5a:	66 0f 1f 44 00 00    	nopw   0x0(%rax,%rax,1)

0000000000400f60 <__do_global_dtors_aux>:
  400f60:	80 3d 81 45 20 00 00 	cmpb   $0x0,0x204581(%rip)        # 6054e8 <completed.7594>
  400f67:	75 11                	jne    400f7a <__do_global_dtors_aux+0x1a>
  400f69:	55                   	push   %rbp
  400f6a:	48 89 e5             	mov    %rsp,%rbp
  400f6d:	e8 6e ff ff ff       	callq  400ee0 <deregister_tm_clones>
  400f72:	5d                   	pop    %rbp
  400f73:	c6 05 6e 45 20 00 01 	movb   $0x1,0x20456e(%rip)        # 6054e8 <completed.7594>
  400f7a:	f3 c3                	repz retq 
  400f7c:	0f 1f 40 00          	nopl   0x0(%rax)

0000000000400f80 <frame_dummy>:
  400f80:	bf 20 4e 60 00       	mov    $0x604e20,%edi
  400f85:	48 83 3f 00          	cmpq   $0x0,(%rdi)
  400f89:	75 05                	jne    400f90 <frame_dummy+0x10>
  400f8b:	eb 93                	jmp    400f20 <register_tm_clones>
  400f8d:	0f 1f 00             	nopl   (%rax)
  400f90:	b8 00 00 00 00       	mov    $0x0,%eax
  400f95:	48 85 c0             	test   %rax,%rax
  400f98:	74 f1                	je     400f8b <frame_dummy+0xb>
  400f9a:	55                   	push   %rbp
  400f9b:	48 89 e5             	mov    %rsp,%rbp
  400f9e:	ff d0                	callq  *%rax
  400fa0:	5d                   	pop    %rbp
  400fa1:	e9 7a ff ff ff       	jmpq   400f20 <register_tm_clones>

0000000000400fa6 <usage>:
  400fa6:	48 83 ec 08          	sub    $0x8,%rsp
  400faa:	48 89 fa             	mov    %rdi,%rdx
  400fad:	83 3d 74 45 20 00 00 	cmpl   $0x0,0x204574(%rip)        # 605528 <is_checker>
  400fb4:	74 3e                	je     400ff4 <usage+0x4e>
  400fb6:	be 18 2f 40 00       	mov    $0x402f18,%esi
  400fbb:	bf 01 00 00 00       	mov    $0x1,%edi
  400fc0:	b8 00 00 00 00       	mov    $0x0,%eax
  400fc5:	e8 36 fe ff ff       	callq  400e00 <__printf_chk@plt>
  400fca:	bf 50 2f 40 00       	mov    $0x402f50,%edi
  400fcf:	e8 fc fc ff ff       	callq  400cd0 <puts@plt>
  400fd4:	bf c8 30 40 00       	mov    $0x4030c8,%edi
  400fd9:	e8 f2 fc ff ff       	callq  400cd0 <puts@plt>
  400fde:	bf 78 2f 40 00       	mov    $0x402f78,%edi
  400fe3:	e8 e8 fc ff ff       	callq  400cd0 <puts@plt>
  400fe8:	bf e2 30 40 00       	mov    $0x4030e2,%edi
  400fed:	e8 de fc ff ff       	callq  400cd0 <puts@plt>
  400ff2:	eb 32                	jmp    401026 <usage+0x80>
  400ff4:	be fe 30 40 00       	mov    $0x4030fe,%esi
  400ff9:	bf 01 00 00 00       	mov    $0x1,%edi
  400ffe:	b8 00 00 00 00       	mov    $0x0,%eax
  401003:	e8 f8 fd ff ff       	callq  400e00 <__printf_chk@plt>
  401008:	bf a0 2f 40 00       	mov    $0x402fa0,%edi
  40100d:	e8 be fc ff ff       	callq  400cd0 <puts@plt>
  401012:	bf c8 2f 40 00       	mov    $0x402fc8,%edi
  401017:	e8 b4 fc ff ff       	callq  400cd0 <puts@plt>
  40101c:	bf 1c 31 40 00       	mov    $0x40311c,%edi
  401021:	e8 aa fc ff ff       	callq  400cd0 <puts@plt>
  401026:	bf 00 00 00 00       	mov    $0x0,%edi
  40102b:	e8 20 fe ff ff       	callq  400e50 <exit@plt>

0000000000401030 <initialize_target>:
  401030:	55                   	push   %rbp
  401031:	53                   	push   %rbx
  401032:	48 81 ec 18 21 00 00 	sub    $0x2118,%rsp
  401039:	89 f5                	mov    %esi,%ebp
  40103b:	64 48 8b 04 25 28 00 	mov    %fs:0x28,%rax
  401042:	00 00 
  401044:	48 89 84 24 08 21 00 	mov    %rax,0x2108(%rsp)
  40104b:	00 
  40104c:	31 c0                	xor    %eax,%eax
  40104e:	89 3d c4 44 20 00    	mov    %edi,0x2044c4(%rip)        # 605518 <check_level>
  401054:	8b 3d 0e 41 20 00    	mov    0x20410e(%rip),%edi        # 605168 <target_id>
  40105a:	e8 0e 1e 00 00       	callq  402e6d <gencookie>
  40105f:	89 05 bf 44 20 00    	mov    %eax,0x2044bf(%rip)        # 605524 <cookie>
  401065:	89 c7                	mov    %eax,%edi
  401067:	e8 01 1e 00 00       	callq  402e6d <gencookie>
  40106c:	89 05 ae 44 20 00    	mov    %eax,0x2044ae(%rip)        # 605520 <authkey>
  401072:	8b 05 f0 40 20 00    	mov    0x2040f0(%rip),%eax        # 605168 <target_id>
  401078:	8d 78 01             	lea    0x1(%rax),%edi
  40107b:	e8 20 fc ff ff       	callq  400ca0 <srandom@plt>
  401080:	e8 3b fd ff ff       	callq  400dc0 <random@plt>
  401085:	89 c7                	mov    %eax,%edi
  401087:	e8 03 03 00 00       	callq  40138f <scramble>
  40108c:	89 c3                	mov    %eax,%ebx
  40108e:	85 ed                	test   %ebp,%ebp
  401090:	74 18                	je     4010aa <initialize_target+0x7a>
  401092:	bf 00 00 00 00       	mov    $0x0,%edi
  401097:	e8 14 fd ff ff       	callq  400db0 <time@plt>
  40109c:	89 c7                	mov    %eax,%edi
  40109e:	e8 fd fb ff ff       	callq  400ca0 <srandom@plt>
  4010a3:	e8 18 fd ff ff       	callq  400dc0 <random@plt>
  4010a8:	eb 05                	jmp    4010af <initialize_target+0x7f>
  4010aa:	b8 00 00 00 00       	mov    $0x0,%eax
  4010af:	01 c3                	add    %eax,%ebx
  4010b1:	0f b7 db             	movzwl %bx,%ebx
  4010b4:	8d 04 dd 00 01 00 00 	lea    0x100(,%rbx,8),%eax
  4010bb:	89 c0                	mov    %eax,%eax
  4010bd:	48 89 05 dc 43 20 00 	mov    %rax,0x2043dc(%rip)        # 6054a0 <buf_offset>
  4010c4:	c6 05 7d 50 20 00 63 	movb   $0x63,0x20507d(%rip)        # 606148 <target_prefix>
  4010cb:	83 3d d6 43 20 00 00 	cmpl   $0x0,0x2043d6(%rip)        # 6054a8 <notify>
  4010d2:	0f 84 bb 00 00 00    	je     401193 <initialize_target+0x163>
  4010d8:	83 3d 49 44 20 00 00 	cmpl   $0x0,0x204449(%rip)        # 605528 <is_checker>
  4010df:	0f 85 ae 00 00 00    	jne    401193 <initialize_target+0x163>
  4010e5:	be 00 01 00 00       	mov    $0x100,%esi
  4010ea:	48 89 e7             	mov    %rsp,%rdi
  4010ed:	e8 4e fd ff ff       	callq  400e40 <gethostname@plt>
  4010f2:	85 c0                	test   %eax,%eax
  4010f4:	74 25                	je     40111b <initialize_target+0xeb>
  4010f6:	bf f8 2f 40 00       	mov    $0x402ff8,%edi
  4010fb:	e8 d0 fb ff ff       	callq  400cd0 <puts@plt>
  401100:	bf 08 00 00 00       	mov    $0x8,%edi
  401105:	e8 46 fd ff ff       	callq  400e50 <exit@plt>
  40110a:	48 89 e6             	mov    %rsp,%rsi
  40110d:	e8 6e fb ff ff       	callq  400c80 <strcasecmp@plt>
  401112:	85 c0                	test   %eax,%eax
  401114:	74 21                	je     401137 <initialize_target+0x107>
  401116:	83 c3 01             	add    $0x1,%ebx
  401119:	eb 05                	jmp    401120 <initialize_target+0xf0>
  40111b:	bb 00 00 00 00       	mov    $0x0,%ebx
  401120:	48 63 c3             	movslq %ebx,%rax
  401123:	48 8b 3c c5 80 51 60 	mov    0x605180(,%rax,8),%rdi
  40112a:	00 
  40112b:	48 85 ff             	test   %rdi,%rdi
  40112e:	75 da                	jne    40110a <initialize_target+0xda>
  401130:	b8 00 00 00 00       	mov    $0x0,%eax
  401135:	eb 05                	jmp    40113c <initialize_target+0x10c>
  401137:	b8 01 00 00 00       	mov    $0x1,%eax
  40113c:	85 c0                	test   %eax,%eax
  40113e:	75 1c                	jne    40115c <initialize_target+0x12c>
  401140:	48 89 e2             	mov    %rsp,%rdx
  401143:	be 30 30 40 00       	mov    $0x403030,%esi
  401148:	bf 01 00 00 00       	mov    $0x1,%edi
  40114d:	e8 ae fc ff ff       	callq  400e00 <__printf_chk@plt>
  401152:	bf 08 00 00 00       	mov    $0x8,%edi
  401157:	e8 f4 fc ff ff       	callq  400e50 <exit@plt>
  40115c:	48 8d bc 24 00 01 00 	lea    0x100(%rsp),%rdi
  401163:	00 
  401164:	e8 6e 1a 00 00       	callq  402bd7 <init_driver>
  401169:	85 c0                	test   %eax,%eax
  40116b:	79 26                	jns    401193 <initialize_target+0x163>
  40116d:	48 8d 94 24 00 01 00 	lea    0x100(%rsp),%rdx
  401174:	00 
  401175:	be 70 30 40 00       	mov    $0x403070,%esi
  40117a:	bf 01 00 00 00       	mov    $0x1,%edi
  40117f:	b8 00 00 00 00       	mov    $0x0,%eax
  401184:	e8 77 fc ff ff       	callq  400e00 <__printf_chk@plt>
  401189:	bf 08 00 00 00       	mov    $0x8,%edi
  40118e:	e8 bd fc ff ff       	callq  400e50 <exit@plt>
  401193:	48 8b 84 24 08 21 00 	mov    0x2108(%rsp),%rax
  40119a:	00 
  40119b:	64 48 33 04 25 28 00 	xor    %fs:0x28,%rax
  4011a2:	00 00 
  4011a4:	74 05                	je     4011ab <initialize_target+0x17b>
  4011a6:	e8 45 fb ff ff       	callq  400cf0 <__stack_chk_fail@plt>
  4011ab:	48 81 c4 18 21 00 00 	add    $0x2118,%rsp
  4011b2:	5b                   	pop    %rbx
  4011b3:	5d                   	pop    %rbp
  4011b4:	c3                   	retq   

00000000004011b5 <main>:
  4011b5:	41 56                	push   %r14
  4011b7:	41 55                	push   %r13
  4011b9:	41 54                	push   %r12
  4011bb:	55                   	push   %rbp
  4011bc:	53                   	push   %rbx
  4011bd:	41 89 fc             	mov    %edi,%r12d
  4011c0:	48 89 f3             	mov    %rsi,%rbx
  4011c3:	be 12 1f 40 00       	mov    $0x401f12,%esi
  4011c8:	bf 0b 00 00 00       	mov    $0xb,%edi
  4011cd:	e8 8e fb ff ff       	callq  400d60 <signal@plt>
  4011d2:	be c4 1e 40 00       	mov    $0x401ec4,%esi
  4011d7:	bf 07 00 00 00       	mov    $0x7,%edi
  4011dc:	e8 7f fb ff ff       	callq  400d60 <signal@plt>
  4011e1:	be 60 1f 40 00       	mov    $0x401f60,%esi
  4011e6:	bf 04 00 00 00       	mov    $0x4,%edi
  4011eb:	e8 70 fb ff ff       	callq  400d60 <signal@plt>
  4011f0:	83 3d 31 43 20 00 00 	cmpl   $0x0,0x204331(%rip)        # 605528 <is_checker>
  4011f7:	74 20                	je     401219 <main+0x64>
  4011f9:	be ae 1f 40 00       	mov    $0x401fae,%esi
  4011fe:	bf 0e 00 00 00       	mov    $0xe,%edi
  401203:	e8 58 fb ff ff       	callq  400d60 <signal@plt>
  401208:	bf 05 00 00 00       	mov    $0x5,%edi
  40120d:	e8 0e fb ff ff       	callq  400d20 <alarm@plt>
  401212:	bd 3a 31 40 00       	mov    $0x40313a,%ebp
  401217:	eb 05                	jmp    40121e <main+0x69>
  401219:	bd 35 31 40 00       	mov    $0x403135,%ebp
  40121e:	48 8b 05 9b 42 20 00 	mov    0x20429b(%rip),%rax        # 6054c0 <stdin@@GLIBC_2.2.5>
  401225:	48 89 05 e4 42 20 00 	mov    %rax,0x2042e4(%rip)        # 605510 <infile>
  40122c:	41 bd 00 00 00 00    	mov    $0x0,%r13d
  401232:	41 be 00 00 00 00    	mov    $0x0,%r14d
  401238:	e9 c6 00 00 00       	jmpq   401303 <main+0x14e>
  40123d:	83 e8 61             	sub    $0x61,%eax
  401240:	3c 10                	cmp    $0x10,%al
  401242:	0f 87 9c 00 00 00    	ja     4012e4 <main+0x12f>
  401248:	0f b6 c0             	movzbl %al,%eax
  40124b:	ff 24 c5 80 31 40 00 	jmpq   *0x403180(,%rax,8)
  401252:	48 8b 3b             	mov    (%rbx),%rdi
  401255:	e8 4c fd ff ff       	callq  400fa6 <usage>
  40125a:	be 1d 35 40 00       	mov    $0x40351d,%esi
  40125f:	48 8b 3d 62 42 20 00 	mov    0x204262(%rip),%rdi        # 6054c8 <optarg@@GLIBC_2.2.5>
  401266:	e8 a5 fb ff ff       	callq  400e10 <fopen@plt>
  40126b:	48 89 05 9e 42 20 00 	mov    %rax,0x20429e(%rip)        # 605510 <infile>
  401272:	48 85 c0             	test   %rax,%rax
  401275:	0f 85 88 00 00 00    	jne    401303 <main+0x14e>
  40127b:	48 8b 0d 46 42 20 00 	mov    0x204246(%rip),%rcx        # 6054c8 <optarg@@GLIBC_2.2.5>
  401282:	ba 42 31 40 00       	mov    $0x403142,%edx
  401287:	be 01 00 00 00       	mov    $0x1,%esi
  40128c:	48 8b 3d 4d 42 20 00 	mov    0x20424d(%rip),%rdi        # 6054e0 <stderr@@GLIBC_2.2.5>
  401293:	e8 d8 fb ff ff       	callq  400e70 <__fprintf_chk@plt>
  401298:	b8 01 00 00 00       	mov    $0x1,%eax
  40129d:	e9 e4 00 00 00       	jmpq   401386 <main+0x1d1>
  4012a2:	ba 10 00 00 00       	mov    $0x10,%edx
  4012a7:	be 00 00 00 00       	mov    $0x0,%esi
  4012ac:	48 8b 3d 15 42 20 00 	mov    0x204215(%rip),%rdi        # 6054c8 <optarg@@GLIBC_2.2.5>
  4012b3:	e8 78 fb ff ff       	callq  400e30 <strtoul@plt>
  4012b8:	41 89 c6             	mov    %eax,%r14d
  4012bb:	eb 46                	jmp    401303 <main+0x14e>
  4012bd:	ba 0a 00 00 00       	mov    $0xa,%edx
  4012c2:	be 00 00 00 00       	mov    $0x0,%esi
  4012c7:	48 8b 3d fa 41 20 00 	mov    0x2041fa(%rip),%rdi        # 6054c8 <optarg@@GLIBC_2.2.5>
  4012ce:	e8 bd fa ff ff       	callq  400d90 <strtol@plt>
  4012d3:	41 89 c5             	mov    %eax,%r13d
  4012d6:	eb 2b                	jmp    401303 <main+0x14e>
  4012d8:	c7 05 c6 41 20 00 00 	movl   $0x0,0x2041c6(%rip)        # 6054a8 <notify>
  4012df:	00 00 00 
  4012e2:	eb 1f                	jmp    401303 <main+0x14e>
  4012e4:	0f be d2             	movsbl %dl,%edx
  4012e7:	be 5f 31 40 00       	mov    $0x40315f,%esi
  4012ec:	bf 01 00 00 00       	mov    $0x1,%edi
  4012f1:	b8 00 00 00 00       	mov    $0x0,%eax
  4012f6:	e8 05 fb ff ff       	callq  400e00 <__printf_chk@plt>
  4012fb:	48 8b 3b             	mov    (%rbx),%rdi
  4012fe:	e8 a3 fc ff ff       	callq  400fa6 <usage>
  401303:	48 89 ea             	mov    %rbp,%rdx
  401306:	48 89 de             	mov    %rbx,%rsi
  401309:	44 89 e7             	mov    %r12d,%edi
  40130c:	e8 0f fb ff ff       	callq  400e20 <getopt@plt>
  401311:	89 c2                	mov    %eax,%edx
  401313:	3c ff                	cmp    $0xff,%al
  401315:	0f 85 22 ff ff ff    	jne    40123d <main+0x88>
  40131b:	be 00 00 00 00       	mov    $0x0,%esi
  401320:	44 89 ef             	mov    %r13d,%edi
  401323:	e8 08 fd ff ff       	callq  401030 <initialize_target>
  401328:	83 3d f9 41 20 00 00 	cmpl   $0x0,0x2041f9(%rip)        # 605528 <is_checker>
  40132f:	74 2a                	je     40135b <main+0x1a6>
  401331:	44 3b 35 e8 41 20 00 	cmp    0x2041e8(%rip),%r14d        # 605520 <authkey>
  401338:	74 21                	je     40135b <main+0x1a6>
  40133a:	44 89 f2             	mov    %r14d,%edx
  40133d:	be 98 30 40 00       	mov    $0x403098,%esi
  401342:	bf 01 00 00 00       	mov    $0x1,%edi
  401347:	b8 00 00 00 00       	mov    $0x0,%eax
  40134c:	e8 af fa ff ff       	callq  400e00 <__printf_chk@plt>
  401351:	b8 00 00 00 00       	mov    $0x0,%eax
  401356:	e8 05 08 00 00       	callq  401b60 <check_fail>
  40135b:	8b 15 c3 41 20 00    	mov    0x2041c3(%rip),%edx        # 605524 <cookie>
  401361:	be 72 31 40 00       	mov    $0x403172,%esi
  401366:	bf 01 00 00 00       	mov    $0x1,%edi
  40136b:	b8 00 00 00 00       	mov    $0x0,%eax
  401370:	e8 8b fa ff ff       	callq  400e00 <__printf_chk@plt>
  401375:	48 8b 3d 24 41 20 00 	mov    0x204124(%rip),%rdi        # 6054a0 <buf_offset>
  40137c:	e8 2d 0d 00 00       	callq  4020ae <stable_launch>
  401381:	b8 00 00 00 00       	mov    $0x0,%eax
  401386:	5b                   	pop    %rbx
  401387:	5d                   	pop    %rbp
  401388:	41 5c                	pop    %r12
  40138a:	41 5d                	pop    %r13
  40138c:	41 5e                	pop    %r14
  40138e:	c3                   	retq   

000000000040138f <scramble>:
  40138f:	48 83 ec 38          	sub    $0x38,%rsp
  401393:	64 48 8b 04 25 28 00 	mov    %fs:0x28,%rax
  40139a:	00 00 
  40139c:	48 89 44 24 28       	mov    %rax,0x28(%rsp)
  4013a1:	31 c0                	xor    %eax,%eax
  4013a3:	eb 10                	jmp    4013b5 <scramble+0x26>
  4013a5:	69 d0 0a e1 00 00    	imul   $0xe10a,%eax,%edx
  4013ab:	01 fa                	add    %edi,%edx
  4013ad:	89 c1                	mov    %eax,%ecx
  4013af:	89 14 8c             	mov    %edx,(%rsp,%rcx,4)
  4013b2:	83 c0 01             	add    $0x1,%eax
  4013b5:	83 f8 09             	cmp    $0x9,%eax
  4013b8:	76 eb                	jbe    4013a5 <scramble+0x16>
  4013ba:	8b 44 24 04          	mov    0x4(%rsp),%eax
  4013be:	69 c0 40 62 00 00    	imul   $0x6240,%eax,%eax
  4013c4:	89 44 24 04          	mov    %eax,0x4(%rsp)
  4013c8:	8b 44 24 0c          	mov    0xc(%rsp),%eax
  4013cc:	69 c0 db 14 00 00    	imul   $0x14db,%eax,%eax
  4013d2:	89 44 24 0c          	mov    %eax,0xc(%rsp)
  4013d6:	8b 44 24 18          	mov    0x18(%rsp),%eax
  4013da:	69 c0 1e a8 00 00    	imul   $0xa81e,%eax,%eax
  4013e0:	89 44 24 18          	mov    %eax,0x18(%rsp)
  4013e4:	8b 44 24 18          	mov    0x18(%rsp),%eax
  4013e8:	69 c0 33 35 00 00    	imul   $0x3533,%eax,%eax
  4013ee:	89 44 24 18          	mov    %eax,0x18(%rsp)
  4013f2:	8b 44 24 1c          	mov    0x1c(%rsp),%eax
  4013f6:	69 c0 98 af 00 00    	imul   $0xaf98,%eax,%eax
  4013fc:	89 44 24 1c          	mov    %eax,0x1c(%rsp)
  401400:	8b 44 24 10          	mov    0x10(%rsp),%eax
  401404:	69 c0 2b 30 00 00    	imul   $0x302b,%eax,%eax
  40140a:	89 44 24 10          	mov    %eax,0x10(%rsp)
  40140e:	8b 44 24 14          	mov    0x14(%rsp),%eax
  401412:	69 c0 ad ba 00 00    	imul   $0xbaad,%eax,%eax
  401418:	89 44 24 14          	mov    %eax,0x14(%rsp)
  40141c:	8b 44 24 18          	mov    0x18(%rsp),%eax
  401420:	69 c0 37 4c 00 00    	imul   $0x4c37,%eax,%eax
  401426:	89 44 24 18          	mov    %eax,0x18(%rsp)
  40142a:	8b 44 24 20          	mov    0x20(%rsp),%eax
  40142e:	69 c0 dd a8 00 00    	imul   $0xa8dd,%eax,%eax
  401434:	89 44 24 20          	mov    %eax,0x20(%rsp)
  401438:	8b 44 24 10          	mov    0x10(%rsp),%eax
  40143c:	69 c0 aa 55 00 00    	imul   $0x55aa,%eax,%eax
  401442:	89 44 24 10          	mov    %eax,0x10(%rsp)
  401446:	8b 44 24 20          	mov    0x20(%rsp),%eax
  40144a:	69 c0 d9 2f 00 00    	imul   $0x2fd9,%eax,%eax
  401450:	89 44 24 20          	mov    %eax,0x20(%rsp)
  401454:	8b 44 24 14          	mov    0x14(%rsp),%eax
  401458:	69 c0 6e 49 00 00    	imul   $0x496e,%eax,%eax
  40145e:	89 44 24 14          	mov    %eax,0x14(%rsp)
  401462:	8b 44 24 1c          	mov    0x1c(%rsp),%eax
  401466:	69 c0 3f 76 00 00    	imul   $0x763f,%eax,%eax
  40146c:	89 44 24 1c          	mov    %eax,0x1c(%rsp)
  401470:	8b 44 24 18          	mov    0x18(%rsp),%eax
  401474:	69 c0 bf 58 00 00    	imul   $0x58bf,%eax,%eax
  40147a:	89 44 24 18          	mov    %eax,0x18(%rsp)
  40147e:	8b 44 24 08          	mov    0x8(%rsp),%eax
  401482:	69 c0 7c 77 00 00    	imul   $0x777c,%eax,%eax
  401488:	89 44 24 08          	mov    %eax,0x8(%rsp)
  40148c:	8b 44 24 20          	mov    0x20(%rsp),%eax
  401490:	69 c0 52 2c 00 00    	imul   $0x2c52,%eax,%eax
  401496:	89 44 24 20          	mov    %eax,0x20(%rsp)
  40149a:	8b 44 24 24          	mov    0x24(%rsp),%eax
  40149e:	69 c0 c7 ec 00 00    	imul   $0xecc7,%eax,%eax
  4014a4:	89 44 24 24          	mov    %eax,0x24(%rsp)
  4014a8:	8b 44 24 04          	mov    0x4(%rsp),%eax
  4014ac:	69 c0 cd ac 00 00    	imul   $0xaccd,%eax,%eax
  4014b2:	89 44 24 04          	mov    %eax,0x4(%rsp)
  4014b6:	8b 44 24 10          	mov    0x10(%rsp),%eax
  4014ba:	69 c0 48 6c 00 00    	imul   $0x6c48,%eax,%eax
  4014c0:	89 44 24 10          	mov    %eax,0x10(%rsp)
  4014c4:	8b 44 24 20          	mov    0x20(%rsp),%eax
  4014c8:	69 c0 d4 b7 00 00    	imul   $0xb7d4,%eax,%eax
  4014ce:	89 44 24 20          	mov    %eax,0x20(%rsp)
  4014d2:	8b 44 24 24          	mov    0x24(%rsp),%eax
  4014d6:	69 c0 ef 58 00 00    	imul   $0x58ef,%eax,%eax
  4014dc:	89 44 24 24          	mov    %eax,0x24(%rsp)
  4014e0:	8b 44 24 18          	mov    0x18(%rsp),%eax
  4014e4:	69 c0 2c 3c 00 00    	imul   $0x3c2c,%eax,%eax
  4014ea:	89 44 24 18          	mov    %eax,0x18(%rsp)
  4014ee:	8b 44 24 04          	mov    0x4(%rsp),%eax
  4014f2:	69 c0 28 72 00 00    	imul   $0x7228,%eax,%eax
  4014f8:	89 44 24 04          	mov    %eax,0x4(%rsp)
  4014fc:	8b 44 24 14          	mov    0x14(%rsp),%eax
  401500:	69 c0 cb df 00 00    	imul   $0xdfcb,%eax,%eax
  401506:	89 44 24 14          	mov    %eax,0x14(%rsp)
  40150a:	8b 44 24 14          	mov    0x14(%rsp),%eax
  40150e:	69 c0 eb ab 00 00    	imul   $0xabeb,%eax,%eax
  401514:	89 44 24 14          	mov    %eax,0x14(%rsp)
  401518:	8b 04 24             	mov    (%rsp),%eax
  40151b:	69 c0 c2 56 00 00    	imul   $0x56c2,%eax,%eax
  401521:	89 04 24             	mov    %eax,(%rsp)
  401524:	8b 44 24 10          	mov    0x10(%rsp),%eax
  401528:	69 c0 5b bd 00 00    	imul   $0xbd5b,%eax,%eax
  40152e:	89 44 24 10          	mov    %eax,0x10(%rsp)
  401532:	8b 44 24 14          	mov    0x14(%rsp),%eax
  401536:	69 c0 29 cc 00 00    	imul   $0xcc29,%eax,%eax
  40153c:	89 44 24 14          	mov    %eax,0x14(%rsp)
  401540:	8b 44 24 10          	mov    0x10(%rsp),%eax
  401544:	69 c0 d4 a2 00 00    	imul   $0xa2d4,%eax,%eax
  40154a:	89 44 24 10          	mov    %eax,0x10(%rsp)
  40154e:	8b 44 24 08          	mov    0x8(%rsp),%eax
  401552:	69 c0 e3 7e 00 00    	imul   $0x7ee3,%eax,%eax
  401558:	89 44 24 08          	mov    %eax,0x8(%rsp)
  40155c:	8b 44 24 0c          	mov    0xc(%rsp),%eax
  401560:	69 c0 e3 e0 00 00    	imul   $0xe0e3,%eax,%eax
  401566:	89 44 24 0c          	mov    %eax,0xc(%rsp)
  40156a:	8b 44 24 10          	mov    0x10(%rsp),%eax
  40156e:	69 c0 0c f4 00 00    	imul   $0xf40c,%eax,%eax
  401574:	89 44 24 10          	mov    %eax,0x10(%rsp)
  401578:	8b 44 24 0c          	mov    0xc(%rsp),%eax
  40157c:	69 c0 63 ec 00 00    	imul   $0xec63,%eax,%eax
  401582:	89 44 24 0c          	mov    %eax,0xc(%rsp)
  401586:	8b 44 24 04          	mov    0x4(%rsp),%eax
  40158a:	69 c0 90 62 00 00    	imul   $0x6290,%eax,%eax
  401590:	89 44 24 04          	mov    %eax,0x4(%rsp)
  401594:	8b 44 24 20          	mov    0x20(%rsp),%eax
  401598:	69 c0 da 82 00 00    	imul   $0x82da,%eax,%eax
  40159e:	89 44 24 20          	mov    %eax,0x20(%rsp)
  4015a2:	8b 44 24 0c          	mov    0xc(%rsp),%eax
  4015a6:	69 c0 8b 74 00 00    	imul   $0x748b,%eax,%eax
  4015ac:	89 44 24 0c          	mov    %eax,0xc(%rsp)
  4015b0:	8b 44 24 14          	mov    0x14(%rsp),%eax
  4015b4:	69 c0 63 02 00 00    	imul   $0x263,%eax,%eax
  4015ba:	89 44 24 14          	mov    %eax,0x14(%rsp)
  4015be:	8b 44 24 14          	mov    0x14(%rsp),%eax
  4015c2:	69 c0 66 ef 00 00    	imul   $0xef66,%eax,%eax
  4015c8:	89 44 24 14          	mov    %eax,0x14(%rsp)
  4015cc:	8b 44 24 14          	mov    0x14(%rsp),%eax
  4015d0:	69 c0 1a 39 00 00    	imul   $0x391a,%eax,%eax
  4015d6:	89 44 24 14          	mov    %eax,0x14(%rsp)
  4015da:	8b 44 24 1c          	mov    0x1c(%rsp),%eax
  4015de:	69 c0 91 8f 00 00    	imul   $0x8f91,%eax,%eax
  4015e4:	89 44 24 1c          	mov    %eax,0x1c(%rsp)
  4015e8:	8b 44 24 04          	mov    0x4(%rsp),%eax
  4015ec:	69 c0 a6 04 00 00    	imul   $0x4a6,%eax,%eax
  4015f2:	89 44 24 04          	mov    %eax,0x4(%rsp)
  4015f6:	8b 44 24 18          	mov    0x18(%rsp),%eax
  4015fa:	69 c0 c9 c0 00 00    	imul   $0xc0c9,%eax,%eax
  401600:	89 44 24 18          	mov    %eax,0x18(%rsp)
  401604:	8b 44 24 10          	mov    0x10(%rsp),%eax
  401608:	69 c0 83 86 00 00    	imul   $0x8683,%eax,%eax
  40160e:	89 44 24 10          	mov    %eax,0x10(%rsp)
  401612:	8b 44 24 24          	mov    0x24(%rsp),%eax
  401616:	69 c0 9d f5 00 00    	imul   $0xf59d,%eax,%eax
  40161c:	89 44 24 24          	mov    %eax,0x24(%rsp)
  401620:	8b 44 24 10          	mov    0x10(%rsp),%eax
  401624:	69 c0 da b1 00 00    	imul   $0xb1da,%eax,%eax
  40162a:	89 44 24 10          	mov    %eax,0x10(%rsp)
  40162e:	8b 44 24 24          	mov    0x24(%rsp),%eax
  401632:	69 c0 a7 43 00 00    	imul   $0x43a7,%eax,%eax
  401638:	89 44 24 24          	mov    %eax,0x24(%rsp)
  40163c:	8b 44 24 0c          	mov    0xc(%rsp),%eax
  401640:	69 c0 b5 1f 00 00    	imul   $0x1fb5,%eax,%eax
  401646:	89 44 24 0c          	mov    %eax,0xc(%rsp)
  40164a:	8b 04 24             	mov    (%rsp),%eax
  40164d:	69 c0 68 60 00 00    	imul   $0x6068,%eax,%eax
  401653:	89 04 24             	mov    %eax,(%rsp)
  401656:	8b 44 24 10          	mov    0x10(%rsp),%eax
  40165a:	69 c0 8d d8 00 00    	imul   $0xd88d,%eax,%eax
  401660:	89 44 24 10          	mov    %eax,0x10(%rsp)
  401664:	8b 44 24 24          	mov    0x24(%rsp),%eax
  401668:	69 c0 c3 64 00 00    	imul   $0x64c3,%eax,%eax
  40166e:	89 44 24 24          	mov    %eax,0x24(%rsp)
  401672:	8b 44 24 08          	mov    0x8(%rsp),%eax
  401676:	69 c0 5c dd 00 00    	imul   $0xdd5c,%eax,%eax
  40167c:	89 44 24 08          	mov    %eax,0x8(%rsp)
  401680:	8b 44 24 24          	mov    0x24(%rsp),%eax
  401684:	69 c0 30 37 00 00    	imul   $0x3730,%eax,%eax
  40168a:	89 44 24 24          	mov    %eax,0x24(%rsp)
  40168e:	8b 44 24 10          	mov    0x10(%rsp),%eax
  401692:	69 c0 05 8a 00 00    	imul   $0x8a05,%eax,%eax
  401698:	89 44 24 10          	mov    %eax,0x10(%rsp)
  40169c:	8b 44 24 14          	mov    0x14(%rsp),%eax
  4016a0:	69 c0 4a 54 00 00    	imul   $0x544a,%eax,%eax
  4016a6:	89 44 24 14          	mov    %eax,0x14(%rsp)
  4016aa:	8b 44 24 14          	mov    0x14(%rsp),%eax
  4016ae:	69 c0 c7 f5 00 00    	imul   $0xf5c7,%eax,%eax
  4016b4:	89 44 24 14          	mov    %eax,0x14(%rsp)
  4016b8:	8b 44 24 10          	mov    0x10(%rsp),%eax
  4016bc:	69 c0 24 a8 00 00    	imul   $0xa824,%eax,%eax
  4016c2:	89 44 24 10          	mov    %eax,0x10(%rsp)
  4016c6:	8b 44 24 04          	mov    0x4(%rsp),%eax
  4016ca:	69 c0 2e ca 00 00    	imul   $0xca2e,%eax,%eax
  4016d0:	89 44 24 04          	mov    %eax,0x4(%rsp)
  4016d4:	8b 44 24 18          	mov    0x18(%rsp),%eax
  4016d8:	69 c0 70 bc 00 00    	imul   $0xbc70,%eax,%eax
  4016de:	89 44 24 18          	mov    %eax,0x18(%rsp)
  4016e2:	8b 44 24 04          	mov    0x4(%rsp),%eax
  4016e6:	69 c0 df f5 00 00    	imul   $0xf5df,%eax,%eax
  4016ec:	89 44 24 04          	mov    %eax,0x4(%rsp)
  4016f0:	8b 44 24 10          	mov    0x10(%rsp),%eax
  4016f4:	69 c0 09 7a 00 00    	imul   $0x7a09,%eax,%eax
  4016fa:	89 44 24 10          	mov    %eax,0x10(%rsp)
  4016fe:	8b 44 24 04          	mov    0x4(%rsp),%eax
  401702:	69 c0 8d 26 00 00    	imul   $0x268d,%eax,%eax
  401708:	89 44 24 04          	mov    %eax,0x4(%rsp)
  40170c:	8b 44 24 10          	mov    0x10(%rsp),%eax
  401710:	69 c0 77 3a 00 00    	imul   $0x3a77,%eax,%eax
  401716:	89 44 24 10          	mov    %eax,0x10(%rsp)
  40171a:	8b 44 24 24          	mov    0x24(%rsp),%eax
  40171e:	69 c0 64 f5 00 00    	imul   $0xf564,%eax,%eax
  401724:	89 44 24 24          	mov    %eax,0x24(%rsp)
  401728:	8b 44 24 0c          	mov    0xc(%rsp),%eax
  40172c:	69 c0 5b 52 00 00    	imul   $0x525b,%eax,%eax
  401732:	89 44 24 0c          	mov    %eax,0xc(%rsp)
  401736:	8b 04 24             	mov    (%rsp),%eax
  401739:	69 c0 d7 5d 00 00    	imul   $0x5dd7,%eax,%eax
  40173f:	89 04 24             	mov    %eax,(%rsp)
  401742:	8b 44 24 14          	mov    0x14(%rsp),%eax
  401746:	69 c0 58 29 00 00    	imul   $0x2958,%eax,%eax
  40174c:	89 44 24 14          	mov    %eax,0x14(%rsp)
  401750:	8b 44 24 1c          	mov    0x1c(%rsp),%eax
  401754:	69 c0 6d 90 00 00    	imul   $0x906d,%eax,%eax
  40175a:	89 44 24 1c          	mov    %eax,0x1c(%rsp)
  40175e:	8b 44 24 10          	mov    0x10(%rsp),%eax
  401762:	69 c0 f2 1a 00 00    	imul   $0x1af2,%eax,%eax
  401768:	89 44 24 10          	mov    %eax,0x10(%rsp)
  40176c:	8b 44 24 0c          	mov    0xc(%rsp),%eax
  401770:	69 c0 1f 87 00 00    	imul   $0x871f,%eax,%eax
  401776:	89 44 24 0c          	mov    %eax,0xc(%rsp)
  40177a:	8b 44 24 14          	mov    0x14(%rsp),%eax
  40177e:	69 c0 92 dd 00 00    	imul   $0xdd92,%eax,%eax
  401784:	89 44 24 14          	mov    %eax,0x14(%rsp)
  401788:	8b 44 24 08          	mov    0x8(%rsp),%eax
  40178c:	69 c0 18 53 00 00    	imul   $0x5318,%eax,%eax
  401792:	89 44 24 08          	mov    %eax,0x8(%rsp)
  401796:	8b 44 24 04          	mov    0x4(%rsp),%eax
  40179a:	69 c0 55 77 00 00    	imul   $0x7755,%eax,%eax
  4017a0:	89 44 24 04          	mov    %eax,0x4(%rsp)
  4017a4:	8b 44 24 24          	mov    0x24(%rsp),%eax
  4017a8:	69 c0 a4 ee 00 00    	imul   $0xeea4,%eax,%eax
  4017ae:	89 44 24 24          	mov    %eax,0x24(%rsp)
  4017b2:	8b 44 24 04          	mov    0x4(%rsp),%eax
  4017b6:	69 c0 f9 6d 00 00    	imul   $0x6df9,%eax,%eax
  4017bc:	89 44 24 04          	mov    %eax,0x4(%rsp)
  4017c0:	8b 44 24 18          	mov    0x18(%rsp),%eax
  4017c4:	69 c0 d2 e5 00 00    	imul   $0xe5d2,%eax,%eax
  4017ca:	89 44 24 18          	mov    %eax,0x18(%rsp)
  4017ce:	8b 44 24 04          	mov    0x4(%rsp),%eax
  4017d2:	69 c0 3d 8c 00 00    	imul   $0x8c3d,%eax,%eax
  4017d8:	89 44 24 04          	mov    %eax,0x4(%rsp)
  4017dc:	8b 44 24 0c          	mov    0xc(%rsp),%eax
  4017e0:	69 c0 b3 a5 00 00    	imul   $0xa5b3,%eax,%eax
  4017e6:	89 44 24 0c          	mov    %eax,0xc(%rsp)
  4017ea:	8b 44 24 08          	mov    0x8(%rsp),%eax
  4017ee:	69 c0 a1 52 00 00    	imul   $0x52a1,%eax,%eax
  4017f4:	89 44 24 08          	mov    %eax,0x8(%rsp)
  4017f8:	8b 44 24 10          	mov    0x10(%rsp),%eax
  4017fc:	69 c0 94 61 00 00    	imul   $0x6194,%eax,%eax
  401802:	89 44 24 10          	mov    %eax,0x10(%rsp)
  401806:	8b 44 24 20          	mov    0x20(%rsp),%eax
  40180a:	69 c0 09 69 00 00    	imul   $0x6909,%eax,%eax
  401810:	89 44 24 20          	mov    %eax,0x20(%rsp)
  401814:	8b 44 24 08          	mov    0x8(%rsp),%eax
  401818:	69 c0 1b 5c 00 00    	imul   $0x5c1b,%eax,%eax
  40181e:	89 44 24 08          	mov    %eax,0x8(%rsp)
  401822:	8b 44 24 08          	mov    0x8(%rsp),%eax
  401826:	69 c0 9f fa 00 00    	imul   $0xfa9f,%eax,%eax
  40182c:	89 44 24 08          	mov    %eax,0x8(%rsp)
  401830:	8b 44 24 10          	mov    0x10(%rsp),%eax
  401834:	69 c0 eb f2 00 00    	imul   $0xf2eb,%eax,%eax
  40183a:	89 44 24 10          	mov    %eax,0x10(%rsp)
  40183e:	8b 44 24 10          	mov    0x10(%rsp),%eax
  401842:	69 c0 fa 06 00 00    	imul   $0x6fa,%eax,%eax
  401848:	89 44 24 10          	mov    %eax,0x10(%rsp)
  40184c:	8b 44 24 20          	mov    0x20(%rsp),%eax
  401850:	69 c0 cf 84 00 00    	imul   $0x84cf,%eax,%eax
  401856:	89 44 24 20          	mov    %eax,0x20(%rsp)
  40185a:	8b 44 24 1c          	mov    0x1c(%rsp),%eax
  40185e:	69 c0 f1 f6 00 00    	imul   $0xf6f1,%eax,%eax
  401864:	89 44 24 1c          	mov    %eax,0x1c(%rsp)
  401868:	8b 44 24 20          	mov    0x20(%rsp),%eax
  40186c:	69 c0 43 6a 00 00    	imul   $0x6a43,%eax,%eax
  401872:	89 44 24 20          	mov    %eax,0x20(%rsp)
  401876:	8b 44 24 1c          	mov    0x1c(%rsp),%eax
  40187a:	69 c0 2e f5 00 00    	imul   $0xf52e,%eax,%eax
  401880:	89 44 24 1c          	mov    %eax,0x1c(%rsp)
  401884:	8b 44 24 24          	mov    0x24(%rsp),%eax
  401888:	69 c0 0b a2 00 00    	imul   $0xa20b,%eax,%eax
  40188e:	89 44 24 24          	mov    %eax,0x24(%rsp)
  401892:	8b 44 24 0c          	mov    0xc(%rsp),%eax
  401896:	69 c0 6a 3d 00 00    	imul   $0x3d6a,%eax,%eax
  40189c:	89 44 24 0c          	mov    %eax,0xc(%rsp)
  4018a0:	8b 44 24 20          	mov    0x20(%rsp),%eax
  4018a4:	69 c0 2a 4b 00 00    	imul   $0x4b2a,%eax,%eax
  4018aa:	89 44 24 20          	mov    %eax,0x20(%rsp)
  4018ae:	8b 44 24 0c          	mov    0xc(%rsp),%eax
  4018b2:	69 c0 3c 94 00 00    	imul   $0x943c,%eax,%eax
  4018b8:	89 44 24 0c          	mov    %eax,0xc(%rsp)
  4018bc:	8b 04 24             	mov    (%rsp),%eax
  4018bf:	69 c0 5d 90 00 00    	imul   $0x905d,%eax,%eax
  4018c5:	89 04 24             	mov    %eax,(%rsp)
  4018c8:	8b 44 24 14          	mov    0x14(%rsp),%eax
  4018cc:	69 c0 f5 8b 00 00    	imul   $0x8bf5,%eax,%eax
  4018d2:	89 44 24 14          	mov    %eax,0x14(%rsp)
  4018d6:	ba 00 00 00 00       	mov    $0x0,%edx
  4018db:	b8 00 00 00 00       	mov    $0x0,%eax
  4018e0:	eb 0a                	jmp    4018ec <scramble+0x55d>
  4018e2:	89 d1                	mov    %edx,%ecx
  4018e4:	8b 0c 8c             	mov    (%rsp,%rcx,4),%ecx
  4018e7:	01 c8                	add    %ecx,%eax
  4018e9:	83 c2 01             	add    $0x1,%edx
  4018ec:	83 fa 09             	cmp    $0x9,%edx
  4018ef:	76 f1                	jbe    4018e2 <scramble+0x553>
  4018f1:	48 8b 74 24 28       	mov    0x28(%rsp),%rsi
  4018f6:	64 48 33 34 25 28 00 	xor    %fs:0x28,%rsi
  4018fd:	00 00 
  4018ff:	74 05                	je     401906 <scramble+0x577>
  401901:	e8 ea f3 ff ff       	callq  400cf0 <__stack_chk_fail@plt>
  401906:	48 83 c4 38          	add    $0x38,%rsp
  40190a:	c3                   	retq   

000000000040190b <getbuf>:
  40190b:	48 83 ec 28          	sub    $0x28,%rsp
  40190f:	48 89 e7             	mov    %rsp,%rdi
  401912:	e8 7e 02 00 00       	callq  401b95 <Gets>
  401917:	b8 01 00 00 00       	mov    $0x1,%eax
  40191c:	48 83 c4 28          	add    $0x28,%rsp
  401920:	c3                   	retq   

0000000000401921 <touch1>:
  401921:	48 83 ec 08          	sub    $0x8,%rsp
  401925:	c7 05 ed 3b 20 00 01 	movl   $0x1,0x203bed(%rip)        # 60551c <vlevel>
  40192c:	00 00 00 
  40192f:	bf 72 33 40 00       	mov    $0x403372,%edi
  401934:	e8 97 f3 ff ff       	callq  400cd0 <puts@plt>
  401939:	bf 01 00 00 00       	mov    $0x1,%edi
  40193e:	e8 97 04 00 00       	callq  401dda <validate>
  401943:	bf 00 00 00 00       	mov    $0x0,%edi
  401948:	e8 03 f5 ff ff       	callq  400e50 <exit@plt>

000000000040194d <touch2>:
  40194d:	48 83 ec 08          	sub    $0x8,%rsp
  401951:	89 fa                	mov    %edi,%edx
  401953:	c7 05 bf 3b 20 00 02 	movl   $0x2,0x203bbf(%rip)        # 60551c <vlevel>
  40195a:	00 00 00 
  40195d:	39 3d c1 3b 20 00    	cmp    %edi,0x203bc1(%rip)        # 605524 <cookie>
  401963:	75 20                	jne    401985 <touch2+0x38>
  401965:	be 98 33 40 00       	mov    $0x403398,%esi
  40196a:	bf 01 00 00 00       	mov    $0x1,%edi
  40196f:	b8 00 00 00 00       	mov    $0x0,%eax
  401974:	e8 87 f4 ff ff       	callq  400e00 <__printf_chk@plt>
  401979:	bf 02 00 00 00       	mov    $0x2,%edi
  40197e:	e8 57 04 00 00       	callq  401dda <validate>
  401983:	eb 1e                	jmp    4019a3 <touch2+0x56>
  401985:	be c0 33 40 00       	mov    $0x4033c0,%esi
  40198a:	bf 01 00 00 00       	mov    $0x1,%edi
  40198f:	b8 00 00 00 00       	mov    $0x0,%eax
  401994:	e8 67 f4 ff ff       	callq  400e00 <__printf_chk@plt>
  401999:	bf 02 00 00 00       	mov    $0x2,%edi
  40199e:	e8 f9 04 00 00       	callq  401e9c <fail>
  4019a3:	bf 00 00 00 00       	mov    $0x0,%edi
  4019a8:	e8 a3 f4 ff ff       	callq  400e50 <exit@plt>

00000000004019ad <hexmatch>:
  4019ad:	41 54                	push   %r12
  4019af:	55                   	push   %rbp
  4019b0:	53                   	push   %rbx
  4019b1:	48 83 c4 80          	add    $0xffffffffffffff80,%rsp
  4019b5:	89 fd                	mov    %edi,%ebp
  4019b7:	48 89 f3             	mov    %rsi,%rbx
  4019ba:	64 48 8b 04 25 28 00 	mov    %fs:0x28,%rax
  4019c1:	00 00 
  4019c3:	48 89 44 24 78       	mov    %rax,0x78(%rsp)
  4019c8:	31 c0                	xor    %eax,%eax
  4019ca:	e8 f1 f3 ff ff       	callq  400dc0 <random@plt>
  4019cf:	48 89 c1             	mov    %rax,%rcx
  4019d2:	48 ba 0b d7 a3 70 3d 	movabs $0xa3d70a3d70a3d70b,%rdx
  4019d9:	0a d7 a3 
  4019dc:	48 f7 ea             	imul   %rdx
  4019df:	48 01 ca             	add    %rcx,%rdx
  4019e2:	48 c1 fa 06          	sar    $0x6,%rdx
  4019e6:	48 89 c8             	mov    %rcx,%rax
  4019e9:	48 c1 f8 3f          	sar    $0x3f,%rax
  4019ed:	48 29 c2             	sub    %rax,%rdx
  4019f0:	48 8d 04 92          	lea    (%rdx,%rdx,4),%rax
  4019f4:	48 8d 14 80          	lea    (%rax,%rax,4),%rdx
  4019f8:	48 8d 04 95 00 00 00 	lea    0x0(,%rdx,4),%rax
  4019ff:	00 
  401a00:	48 29 c1             	sub    %rax,%rcx
  401a03:	4c 8d 24 0c          	lea    (%rsp,%rcx,1),%r12
  401a07:	41 89 e8             	mov    %ebp,%r8d
  401a0a:	b9 8f 33 40 00       	mov    $0x40338f,%ecx
  401a0f:	48 c7 c2 ff ff ff ff 	mov    $0xffffffffffffffff,%rdx
  401a16:	be 01 00 00 00       	mov    $0x1,%esi
  401a1b:	4c 89 e7             	mov    %r12,%rdi
  401a1e:	b8 00 00 00 00       	mov    $0x0,%eax
  401a23:	e8 58 f4 ff ff       	callq  400e80 <__sprintf_chk@plt>
  401a28:	ba 09 00 00 00       	mov    $0x9,%edx
  401a2d:	4c 89 e6             	mov    %r12,%rsi
  401a30:	48 89 df             	mov    %rbx,%rdi
  401a33:	e8 78 f2 ff ff       	callq  400cb0 <strncmp@plt>
  401a38:	85 c0                	test   %eax,%eax
  401a3a:	0f 94 c0             	sete   %al
  401a3d:	48 8b 5c 24 78       	mov    0x78(%rsp),%rbx
  401a42:	64 48 33 1c 25 28 00 	xor    %fs:0x28,%rbx
  401a49:	00 00 
  401a4b:	74 05                	je     401a52 <hexmatch+0xa5>
  401a4d:	e8 9e f2 ff ff       	callq  400cf0 <__stack_chk_fail@plt>
  401a52:	0f b6 c0             	movzbl %al,%eax
  401a55:	48 83 ec 80          	sub    $0xffffffffffffff80,%rsp
  401a59:	5b                   	pop    %rbx
  401a5a:	5d                   	pop    %rbp
  401a5b:	41 5c                	pop    %r12
  401a5d:	c3                   	retq   

0000000000401a5e <touch3>:
  401a5e:	53                   	push   %rbx
  401a5f:	48 89 fb             	mov    %rdi,%rbx
  401a62:	c7 05 b0 3a 20 00 03 	movl   $0x3,0x203ab0(%rip)        # 60551c <vlevel>
  401a69:	00 00 00 
  401a6c:	48 89 fe             	mov    %rdi,%rsi
  401a6f:	8b 3d af 3a 20 00    	mov    0x203aaf(%rip),%edi        # 605524 <cookie>
  401a75:	e8 33 ff ff ff       	callq  4019ad <hexmatch>
  401a7a:	85 c0                	test   %eax,%eax
  401a7c:	74 23                	je     401aa1 <touch3+0x43>
  401a7e:	48 89 da             	mov    %rbx,%rdx
  401a81:	be e8 33 40 00       	mov    $0x4033e8,%esi
  401a86:	bf 01 00 00 00       	mov    $0x1,%edi
  401a8b:	b8 00 00 00 00       	mov    $0x0,%eax
  401a90:	e8 6b f3 ff ff       	callq  400e00 <__printf_chk@plt>
  401a95:	bf 03 00 00 00       	mov    $0x3,%edi
  401a9a:	e8 3b 03 00 00       	callq  401dda <validate>
  401a9f:	eb 21                	jmp    401ac2 <touch3+0x64>
  401aa1:	48 89 da             	mov    %rbx,%rdx
  401aa4:	be 10 34 40 00       	mov    $0x403410,%esi
  401aa9:	bf 01 00 00 00       	mov    $0x1,%edi
  401aae:	b8 00 00 00 00       	mov    $0x0,%eax
  401ab3:	e8 48 f3 ff ff       	callq  400e00 <__printf_chk@plt>
  401ab8:	bf 03 00 00 00       	mov    $0x3,%edi
  401abd:	e8 da 03 00 00       	callq  401e9c <fail>
  401ac2:	bf 00 00 00 00       	mov    $0x0,%edi
  401ac7:	e8 84 f3 ff ff       	callq  400e50 <exit@plt>

0000000000401acc <test>:
  401acc:	48 83 ec 08          	sub    $0x8,%rsp
  401ad0:	b8 00 00 00 00       	mov    $0x0,%eax
  401ad5:	e8 31 fe ff ff       	callq  40190b <getbuf>
  401ada:	89 c2                	mov    %eax,%edx
  401adc:	be 38 34 40 00       	mov    $0x403438,%esi
  401ae1:	bf 01 00 00 00       	mov    $0x1,%edi
  401ae6:	b8 00 00 00 00       	mov    $0x0,%eax
  401aeb:	e8 10 f3 ff ff       	callq  400e00 <__printf_chk@plt>
  401af0:	48 83 c4 08          	add    $0x8,%rsp
  401af4:	c3                   	retq   

0000000000401af5 <save_char>:
  401af5:	8b 05 49 46 20 00    	mov    0x204649(%rip),%eax        # 606144 <gets_cnt>
  401afb:	3d ff 03 00 00       	cmp    $0x3ff,%eax
  401b00:	7f 49                	jg     401b4b <save_char+0x56>
  401b02:	8d 14 40             	lea    (%rax,%rax,2),%edx
  401b05:	89 f9                	mov    %edi,%ecx
  401b07:	c0 e9 04             	shr    $0x4,%cl
  401b0a:	83 e1 0f             	and    $0xf,%ecx
  401b0d:	0f b6 b1 60 37 40 00 	movzbl 0x403760(%rcx),%esi
  401b14:	48 63 ca             	movslq %edx,%rcx
  401b17:	40 88 b1 40 55 60 00 	mov    %sil,0x605540(%rcx)
  401b1e:	8d 4a 01             	lea    0x1(%rdx),%ecx
  401b21:	83 e7 0f             	and    $0xf,%edi
  401b24:	0f b6 b7 60 37 40 00 	movzbl 0x403760(%rdi),%esi
  401b2b:	48 63 c9             	movslq %ecx,%rcx
  401b2e:	40 88 b1 40 55 60 00 	mov    %sil,0x605540(%rcx)
  401b35:	83 c2 02             	add    $0x2,%edx
  401b38:	48 63 d2             	movslq %edx,%rdx
  401b3b:	c6 82 40 55 60 00 20 	movb   $0x20,0x605540(%rdx)
  401b42:	83 c0 01             	add    $0x1,%eax
  401b45:	89 05 f9 45 20 00    	mov    %eax,0x2045f9(%rip)        # 606144 <gets_cnt>
  401b4b:	f3 c3                	repz retq 

0000000000401b4d <save_term>:
  401b4d:	8b 05 f1 45 20 00    	mov    0x2045f1(%rip),%eax        # 606144 <gets_cnt>
  401b53:	8d 04 40             	lea    (%rax,%rax,2),%eax
  401b56:	48 98                	cltq   
  401b58:	c6 80 40 55 60 00 00 	movb   $0x0,0x605540(%rax)
  401b5f:	c3                   	retq   

0000000000401b60 <check_fail>:
  401b60:	48 83 ec 08          	sub    $0x8,%rsp
  401b64:	0f be 15 dd 45 20 00 	movsbl 0x2045dd(%rip),%edx        # 606148 <target_prefix>
  401b6b:	41 b8 40 55 60 00    	mov    $0x605540,%r8d
  401b71:	8b 0d a1 39 20 00    	mov    0x2039a1(%rip),%ecx        # 605518 <check_level>
  401b77:	be 5b 34 40 00       	mov    $0x40345b,%esi
  401b7c:	bf 01 00 00 00       	mov    $0x1,%edi
  401b81:	b8 00 00 00 00       	mov    $0x0,%eax
  401b86:	e8 75 f2 ff ff       	callq  400e00 <__printf_chk@plt>
  401b8b:	bf 01 00 00 00       	mov    $0x1,%edi
  401b90:	e8 bb f2 ff ff       	callq  400e50 <exit@plt>

0000000000401b95 <Gets>:
  401b95:	41 54                	push   %r12
  401b97:	55                   	push   %rbp
  401b98:	53                   	push   %rbx
  401b99:	49 89 fc             	mov    %rdi,%r12
  401b9c:	c7 05 9e 45 20 00 00 	movl   $0x0,0x20459e(%rip)        # 606144 <gets_cnt>
  401ba3:	00 00 00 
  401ba6:	48 89 fb             	mov    %rdi,%rbx
  401ba9:	eb 11                	jmp    401bbc <Gets+0x27>
  401bab:	48 8d 6b 01          	lea    0x1(%rbx),%rbp
  401baf:	88 03                	mov    %al,(%rbx)
  401bb1:	0f b6 f8             	movzbl %al,%edi
  401bb4:	e8 3c ff ff ff       	callq  401af5 <save_char>
  401bb9:	48 89 eb             	mov    %rbp,%rbx
  401bbc:	48 8b 3d 4d 39 20 00 	mov    0x20394d(%rip),%rdi        # 605510 <infile>
  401bc3:	e8 08 f2 ff ff       	callq  400dd0 <_IO_getc@plt>
  401bc8:	83 f8 ff             	cmp    $0xffffffff,%eax
  401bcb:	74 05                	je     401bd2 <Gets+0x3d>
  401bcd:	83 f8 0a             	cmp    $0xa,%eax
  401bd0:	75 d9                	jne    401bab <Gets+0x16>
  401bd2:	c6 03 00             	movb   $0x0,(%rbx)
  401bd5:	b8 00 00 00 00       	mov    $0x0,%eax
  401bda:	e8 6e ff ff ff       	callq  401b4d <save_term>
  401bdf:	4c 89 e0             	mov    %r12,%rax
  401be2:	5b                   	pop    %rbx
  401be3:	5d                   	pop    %rbp
  401be4:	41 5c                	pop    %r12
  401be6:	c3                   	retq   

0000000000401be7 <notify_server>:
  401be7:	53                   	push   %rbx
  401be8:	48 81 ec 10 40 00 00 	sub    $0x4010,%rsp
  401bef:	64 48 8b 04 25 28 00 	mov    %fs:0x28,%rax
  401bf6:	00 00 
  401bf8:	48 89 84 24 08 40 00 	mov    %rax,0x4008(%rsp)
  401bff:	00 
  401c00:	31 c0                	xor    %eax,%eax
  401c02:	83 3d 1f 39 20 00 00 	cmpl   $0x0,0x20391f(%rip)        # 605528 <is_checker>
  401c09:	0f 85 aa 01 00 00    	jne    401db9 <notify_server+0x1d2>
  401c0f:	89 fb                	mov    %edi,%ebx
  401c11:	8b 05 2d 45 20 00    	mov    0x20452d(%rip),%eax        # 606144 <gets_cnt>
  401c17:	83 c0 64             	add    $0x64,%eax
  401c1a:	3d 00 20 00 00       	cmp    $0x2000,%eax
  401c1f:	7e 1e                	jle    401c3f <notify_server+0x58>
  401c21:	be 90 35 40 00       	mov    $0x403590,%esi
  401c26:	bf 01 00 00 00       	mov    $0x1,%edi
  401c2b:	b8 00 00 00 00       	mov    $0x0,%eax
  401c30:	e8 cb f1 ff ff       	callq  400e00 <__printf_chk@plt>
  401c35:	bf 01 00 00 00       	mov    $0x1,%edi
  401c3a:	e8 11 f2 ff ff       	callq  400e50 <exit@plt>
  401c3f:	0f be 05 02 45 20 00 	movsbl 0x204502(%rip),%eax        # 606148 <target_prefix>
  401c46:	83 3d 5b 38 20 00 00 	cmpl   $0x0,0x20385b(%rip)        # 6054a8 <notify>
  401c4d:	74 08                	je     401c57 <notify_server+0x70>
  401c4f:	8b 15 cb 38 20 00    	mov    0x2038cb(%rip),%edx        # 605520 <authkey>
  401c55:	eb 05                	jmp    401c5c <notify_server+0x75>
  401c57:	ba ff ff ff ff       	mov    $0xffffffff,%edx
  401c5c:	85 db                	test   %ebx,%ebx
  401c5e:	74 08                	je     401c68 <notify_server+0x81>
  401c60:	41 b9 71 34 40 00    	mov    $0x403471,%r9d
  401c66:	eb 06                	jmp    401c6e <notify_server+0x87>
  401c68:	41 b9 76 34 40 00    	mov    $0x403476,%r9d
  401c6e:	68 40 55 60 00       	pushq  $0x605540
  401c73:	56                   	push   %rsi
  401c74:	50                   	push   %rax
  401c75:	52                   	push   %rdx
  401c76:	44 8b 05 eb 34 20 00 	mov    0x2034eb(%rip),%r8d        # 605168 <target_id>
  401c7d:	b9 7b 34 40 00       	mov    $0x40347b,%ecx
  401c82:	ba 00 20 00 00       	mov    $0x2000,%edx
  401c87:	be 01 00 00 00       	mov    $0x1,%esi
  401c8c:	48 8d 7c 24 20       	lea    0x20(%rsp),%rdi
  401c91:	b8 00 00 00 00       	mov    $0x0,%eax
  401c96:	e8 e5 f1 ff ff       	callq  400e80 <__sprintf_chk@plt>
  401c9b:	48 83 c4 20          	add    $0x20,%rsp
  401c9f:	83 3d 02 38 20 00 00 	cmpl   $0x0,0x203802(%rip)        # 6054a8 <notify>
  401ca6:	0f 84 81 00 00 00    	je     401d2d <notify_server+0x146>
  401cac:	85 db                	test   %ebx,%ebx
  401cae:	74 6e                	je     401d1e <notify_server+0x137>
  401cb0:	4c 8d 8c 24 00 20 00 	lea    0x2000(%rsp),%r9
  401cb7:	00 
  401cb8:	41 b8 00 00 00 00    	mov    $0x0,%r8d
  401cbe:	48 89 e1             	mov    %rsp,%rcx
  401cc1:	48 8b 15 a8 34 20 00 	mov    0x2034a8(%rip),%rdx        # 605170 <lab>
  401cc8:	48 8b 35 a9 34 20 00 	mov    0x2034a9(%rip),%rsi        # 605178 <course>
  401ccf:	48 8b 3d 8a 34 20 00 	mov    0x20348a(%rip),%rdi        # 605160 <user_id>
  401cd6:	e8 ef 10 00 00       	callq  402dca <driver_post>
  401cdb:	85 c0                	test   %eax,%eax
  401cdd:	79 26                	jns    401d05 <notify_server+0x11e>
  401cdf:	48 8d 94 24 00 20 00 	lea    0x2000(%rsp),%rdx
  401ce6:	00 
  401ce7:	be 97 34 40 00       	mov    $0x403497,%esi
  401cec:	bf 01 00 00 00       	mov    $0x1,%edi
  401cf1:	b8 00 00 00 00       	mov    $0x0,%eax
  401cf6:	e8 05 f1 ff ff       	callq  400e00 <__printf_chk@plt>
  401cfb:	bf 01 00 00 00       	mov    $0x1,%edi
  401d00:	e8 4b f1 ff ff       	callq  400e50 <exit@plt>
  401d05:	bf c0 35 40 00       	mov    $0x4035c0,%edi
  401d0a:	e8 c1 ef ff ff       	callq  400cd0 <puts@plt>
  401d0f:	bf a3 34 40 00       	mov    $0x4034a3,%edi
  401d14:	e8 b7 ef ff ff       	callq  400cd0 <puts@plt>
  401d19:	e9 9b 00 00 00       	jmpq   401db9 <notify_server+0x1d2>
  401d1e:	bf ad 34 40 00       	mov    $0x4034ad,%edi
  401d23:	e8 a8 ef ff ff       	callq  400cd0 <puts@plt>
  401d28:	e9 8c 00 00 00       	jmpq   401db9 <notify_server+0x1d2>
  401d2d:	85 db                	test   %ebx,%ebx
  401d2f:	74 07                	je     401d38 <notify_server+0x151>
  401d31:	ba 71 34 40 00       	mov    $0x403471,%edx
  401d36:	eb 05                	jmp    401d3d <notify_server+0x156>
  401d38:	ba 76 34 40 00       	mov    $0x403476,%edx
  401d3d:	be f8 35 40 00       	mov    $0x4035f8,%esi
  401d42:	bf 01 00 00 00       	mov    $0x1,%edi
  401d47:	b8 00 00 00 00       	mov    $0x0,%eax
  401d4c:	e8 af f0 ff ff       	callq  400e00 <__printf_chk@plt>
  401d51:	48 8b 15 08 34 20 00 	mov    0x203408(%rip),%rdx        # 605160 <user_id>
  401d58:	be b4 34 40 00       	mov    $0x4034b4,%esi
  401d5d:	bf 01 00 00 00       	mov    $0x1,%edi
  401d62:	b8 00 00 00 00       	mov    $0x0,%eax
  401d67:	e8 94 f0 ff ff       	callq  400e00 <__printf_chk@plt>
  401d6c:	48 8b 15 05 34 20 00 	mov    0x203405(%rip),%rdx        # 605178 <course>
  401d73:	be c1 34 40 00       	mov    $0x4034c1,%esi
  401d78:	bf 01 00 00 00       	mov    $0x1,%edi
  401d7d:	b8 00 00 00 00       	mov    $0x0,%eax
  401d82:	e8 79 f0 ff ff       	callq  400e00 <__printf_chk@plt>
  401d87:	48 8b 15 e2 33 20 00 	mov    0x2033e2(%rip),%rdx        # 605170 <lab>
  401d8e:	be cd 34 40 00       	mov    $0x4034cd,%esi
  401d93:	bf 01 00 00 00       	mov    $0x1,%edi
  401d98:	b8 00 00 00 00       	mov    $0x0,%eax
  401d9d:	e8 5e f0 ff ff       	callq  400e00 <__printf_chk@plt>
  401da2:	48 89 e2             	mov    %rsp,%rdx
  401da5:	be d6 34 40 00       	mov    $0x4034d6,%esi
  401daa:	bf 01 00 00 00       	mov    $0x1,%edi
  401daf:	b8 00 00 00 00       	mov    $0x0,%eax
  401db4:	e8 47 f0 ff ff       	callq  400e00 <__printf_chk@plt>
  401db9:	48 8b 84 24 08 40 00 	mov    0x4008(%rsp),%rax
  401dc0:	00 
  401dc1:	64 48 33 04 25 28 00 	xor    %fs:0x28,%rax
  401dc8:	00 00 
  401dca:	74 05                	je     401dd1 <notify_server+0x1ea>
  401dcc:	e8 1f ef ff ff       	callq  400cf0 <__stack_chk_fail@plt>
  401dd1:	48 81 c4 10 40 00 00 	add    $0x4010,%rsp
  401dd8:	5b                   	pop    %rbx
  401dd9:	c3                   	retq   

0000000000401dda <validate>:
  401dda:	53                   	push   %rbx
  401ddb:	89 fb                	mov    %edi,%ebx
  401ddd:	83 3d 44 37 20 00 00 	cmpl   $0x0,0x203744(%rip)        # 605528 <is_checker>
  401de4:	74 6b                	je     401e51 <validate+0x77>
  401de6:	39 3d 30 37 20 00    	cmp    %edi,0x203730(%rip)        # 60551c <vlevel>
  401dec:	74 14                	je     401e02 <validate+0x28>
  401dee:	bf e2 34 40 00       	mov    $0x4034e2,%edi
  401df3:	e8 d8 ee ff ff       	callq  400cd0 <puts@plt>
  401df8:	b8 00 00 00 00       	mov    $0x0,%eax
  401dfd:	e8 5e fd ff ff       	callq  401b60 <check_fail>
  401e02:	8b 15 10 37 20 00    	mov    0x203710(%rip),%edx        # 605518 <check_level>
  401e08:	39 d7                	cmp    %edx,%edi
  401e0a:	74 20                	je     401e2c <validate+0x52>
  401e0c:	89 f9                	mov    %edi,%ecx
  401e0e:	be 20 36 40 00       	mov    $0x403620,%esi
  401e13:	bf 01 00 00 00       	mov    $0x1,%edi
  401e18:	b8 00 00 00 00       	mov    $0x0,%eax
  401e1d:	e8 de ef ff ff       	callq  400e00 <__printf_chk@plt>
  401e22:	b8 00 00 00 00       	mov    $0x0,%eax
  401e27:	e8 34 fd ff ff       	callq  401b60 <check_fail>
  401e2c:	0f be 15 15 43 20 00 	movsbl 0x204315(%rip),%edx        # 606148 <target_prefix>
  401e33:	41 b8 40 55 60 00    	mov    $0x605540,%r8d
  401e39:	89 f9                	mov    %edi,%ecx
  401e3b:	be 00 35 40 00       	mov    $0x403500,%esi
  401e40:	bf 01 00 00 00       	mov    $0x1,%edi
  401e45:	b8 00 00 00 00       	mov    $0x0,%eax
  401e4a:	e8 b1 ef ff ff       	callq  400e00 <__printf_chk@plt>
  401e4f:	eb 49                	jmp    401e9a <validate+0xc0>
  401e51:	3b 3d c5 36 20 00    	cmp    0x2036c5(%rip),%edi        # 60551c <vlevel>
  401e57:	74 18                	je     401e71 <validate+0x97>
  401e59:	bf e2 34 40 00       	mov    $0x4034e2,%edi
  401e5e:	e8 6d ee ff ff       	callq  400cd0 <puts@plt>
  401e63:	89 de                	mov    %ebx,%esi
  401e65:	bf 00 00 00 00       	mov    $0x0,%edi
  401e6a:	e8 78 fd ff ff       	callq  401be7 <notify_server>
  401e6f:	eb 29                	jmp    401e9a <validate+0xc0>
  401e71:	0f be 0d d0 42 20 00 	movsbl 0x2042d0(%rip),%ecx        # 606148 <target_prefix>
  401e78:	89 fa                	mov    %edi,%edx
  401e7a:	be 48 36 40 00       	mov    $0x403648,%esi
  401e7f:	bf 01 00 00 00       	mov    $0x1,%edi
  401e84:	b8 00 00 00 00       	mov    $0x0,%eax
  401e89:	e8 72 ef ff ff       	callq  400e00 <__printf_chk@plt>
  401e8e:	89 de                	mov    %ebx,%esi
  401e90:	bf 01 00 00 00       	mov    $0x1,%edi
  401e95:	e8 4d fd ff ff       	callq  401be7 <notify_server>
  401e9a:	5b                   	pop    %rbx
  401e9b:	c3                   	retq   

0000000000401e9c <fail>:
  401e9c:	48 83 ec 08          	sub    $0x8,%rsp
  401ea0:	83 3d 81 36 20 00 00 	cmpl   $0x0,0x203681(%rip)        # 605528 <is_checker>
  401ea7:	74 0a                	je     401eb3 <fail+0x17>
  401ea9:	b8 00 00 00 00       	mov    $0x0,%eax
  401eae:	e8 ad fc ff ff       	callq  401b60 <check_fail>
  401eb3:	89 fe                	mov    %edi,%esi
  401eb5:	bf 00 00 00 00       	mov    $0x0,%edi
  401eba:	e8 28 fd ff ff       	callq  401be7 <notify_server>
  401ebf:	48 83 c4 08          	add    $0x8,%rsp
  401ec3:	c3                   	retq   

0000000000401ec4 <bushandler>:
  401ec4:	48 83 ec 08          	sub    $0x8,%rsp
  401ec8:	83 3d 59 36 20 00 00 	cmpl   $0x0,0x203659(%rip)        # 605528 <is_checker>
  401ecf:	74 14                	je     401ee5 <bushandler+0x21>
  401ed1:	bf 15 35 40 00       	mov    $0x403515,%edi
  401ed6:	e8 f5 ed ff ff       	callq  400cd0 <puts@plt>
  401edb:	b8 00 00 00 00       	mov    $0x0,%eax
  401ee0:	e8 7b fc ff ff       	callq  401b60 <check_fail>
  401ee5:	bf 80 36 40 00       	mov    $0x403680,%edi
  401eea:	e8 e1 ed ff ff       	callq  400cd0 <puts@plt>
  401eef:	bf 1f 35 40 00       	mov    $0x40351f,%edi
  401ef4:	e8 d7 ed ff ff       	callq  400cd0 <puts@plt>
  401ef9:	be 00 00 00 00       	mov    $0x0,%esi
  401efe:	bf 00 00 00 00       	mov    $0x0,%edi
  401f03:	e8 df fc ff ff       	callq  401be7 <notify_server>
  401f08:	bf 01 00 00 00       	mov    $0x1,%edi
  401f0d:	e8 3e ef ff ff       	callq  400e50 <exit@plt>

0000000000401f12 <seghandler>:
  401f12:	48 83 ec 08          	sub    $0x8,%rsp
  401f16:	83 3d 0b 36 20 00 00 	cmpl   $0x0,0x20360b(%rip)        # 605528 <is_checker>
  401f1d:	74 14                	je     401f33 <seghandler+0x21>
  401f1f:	bf 35 35 40 00       	mov    $0x403535,%edi
  401f24:	e8 a7 ed ff ff       	callq  400cd0 <puts@plt>
  401f29:	b8 00 00 00 00       	mov    $0x0,%eax
  401f2e:	e8 2d fc ff ff       	callq  401b60 <check_fail>
  401f33:	bf a0 36 40 00       	mov    $0x4036a0,%edi
  401f38:	e8 93 ed ff ff       	callq  400cd0 <puts@plt>
  401f3d:	bf 1f 35 40 00       	mov    $0x40351f,%edi
  401f42:	e8 89 ed ff ff       	callq  400cd0 <puts@plt>
  401f47:	be 00 00 00 00       	mov    $0x0,%esi
  401f4c:	bf 00 00 00 00       	mov    $0x0,%edi
  401f51:	e8 91 fc ff ff       	callq  401be7 <notify_server>
  401f56:	bf 01 00 00 00       	mov    $0x1,%edi
  401f5b:	e8 f0 ee ff ff       	callq  400e50 <exit@plt>

0000000000401f60 <illegalhandler>:
  401f60:	48 83 ec 08          	sub    $0x8,%rsp
  401f64:	83 3d bd 35 20 00 00 	cmpl   $0x0,0x2035bd(%rip)        # 605528 <is_checker>
  401f6b:	74 14                	je     401f81 <illegalhandler+0x21>
  401f6d:	bf 48 35 40 00       	mov    $0x403548,%edi
  401f72:	e8 59 ed ff ff       	callq  400cd0 <puts@plt>
  401f77:	b8 00 00 00 00       	mov    $0x0,%eax
  401f7c:	e8 df fb ff ff       	callq  401b60 <check_fail>
  401f81:	bf c8 36 40 00       	mov    $0x4036c8,%edi
  401f86:	e8 45 ed ff ff       	callq  400cd0 <puts@plt>
  401f8b:	bf 1f 35 40 00       	mov    $0x40351f,%edi
  401f90:	e8 3b ed ff ff       	callq  400cd0 <puts@plt>
  401f95:	be 00 00 00 00       	mov    $0x0,%esi
  401f9a:	bf 00 00 00 00       	mov    $0x0,%edi
  401f9f:	e8 43 fc ff ff       	callq  401be7 <notify_server>
  401fa4:	bf 01 00 00 00       	mov    $0x1,%edi
  401fa9:	e8 a2 ee ff ff       	callq  400e50 <exit@plt>

0000000000401fae <sigalrmhandler>:
  401fae:	48 83 ec 08          	sub    $0x8,%rsp
  401fb2:	83 3d 6f 35 20 00 00 	cmpl   $0x0,0x20356f(%rip)        # 605528 <is_checker>
  401fb9:	74 14                	je     401fcf <sigalrmhandler+0x21>
  401fbb:	bf 5c 35 40 00       	mov    $0x40355c,%edi
  401fc0:	e8 0b ed ff ff       	callq  400cd0 <puts@plt>
  401fc5:	b8 00 00 00 00       	mov    $0x0,%eax
  401fca:	e8 91 fb ff ff       	callq  401b60 <check_fail>
  401fcf:	ba 05 00 00 00       	mov    $0x5,%edx
  401fd4:	be f8 36 40 00       	mov    $0x4036f8,%esi
  401fd9:	bf 01 00 00 00       	mov    $0x1,%edi
  401fde:	b8 00 00 00 00       	mov    $0x0,%eax
  401fe3:	e8 18 ee ff ff       	callq  400e00 <__printf_chk@plt>
  401fe8:	be 00 00 00 00       	mov    $0x0,%esi
  401fed:	bf 00 00 00 00       	mov    $0x0,%edi
  401ff2:	e8 f0 fb ff ff       	callq  401be7 <notify_server>
  401ff7:	bf 01 00 00 00       	mov    $0x1,%edi
  401ffc:	e8 4f ee ff ff       	callq  400e50 <exit@plt>

0000000000402001 <launch>:
  402001:	55                   	push   %rbp
  402002:	48 89 e5             	mov    %rsp,%rbp
  402005:	48 83 ec 10          	sub    $0x10,%rsp
  402009:	48 89 fa             	mov    %rdi,%rdx
  40200c:	64 48 8b 04 25 28 00 	mov    %fs:0x28,%rax
  402013:	00 00 
  402015:	48 89 45 f8          	mov    %rax,-0x8(%rbp)
  402019:	31 c0                	xor    %eax,%eax
  40201b:	48 8d 47 1e          	lea    0x1e(%rdi),%rax
  40201f:	48 83 e0 f0          	and    $0xfffffffffffffff0,%rax
  402023:	48 29 c4             	sub    %rax,%rsp
  402026:	48 8d 7c 24 0f       	lea    0xf(%rsp),%rdi
  40202b:	48 83 e7 f0          	and    $0xfffffffffffffff0,%rdi
  40202f:	be f4 00 00 00       	mov    $0xf4,%esi
  402034:	e8 d7 ec ff ff       	callq  400d10 <memset@plt>
  402039:	48 8b 05 80 34 20 00 	mov    0x203480(%rip),%rax        # 6054c0 <stdin@@GLIBC_2.2.5>
  402040:	48 39 05 c9 34 20 00 	cmp    %rax,0x2034c9(%rip)        # 605510 <infile>
  402047:	75 14                	jne    40205d <launch+0x5c>
  402049:	be 64 35 40 00       	mov    $0x403564,%esi
  40204e:	bf 01 00 00 00       	mov    $0x1,%edi
  402053:	b8 00 00 00 00       	mov    $0x0,%eax
  402058:	e8 a3 ed ff ff       	callq  400e00 <__printf_chk@plt>
  40205d:	c7 05 b5 34 20 00 00 	movl   $0x0,0x2034b5(%rip)        # 60551c <vlevel>
  402064:	00 00 00 
  402067:	b8 00 00 00 00       	mov    $0x0,%eax
  40206c:	e8 5b fa ff ff       	callq  401acc <test>
  402071:	83 3d b0 34 20 00 00 	cmpl   $0x0,0x2034b0(%rip)        # 605528 <is_checker>
  402078:	74 14                	je     40208e <launch+0x8d>
  40207a:	bf 71 35 40 00       	mov    $0x403571,%edi
  40207f:	e8 4c ec ff ff       	callq  400cd0 <puts@plt>
  402084:	b8 00 00 00 00       	mov    $0x0,%eax
  402089:	e8 d2 fa ff ff       	callq  401b60 <check_fail>
  40208e:	bf 7c 35 40 00       	mov    $0x40357c,%edi
  402093:	e8 38 ec ff ff       	callq  400cd0 <puts@plt>
  402098:	48 8b 45 f8          	mov    -0x8(%rbp),%rax
  40209c:	64 48 33 04 25 28 00 	xor    %fs:0x28,%rax
  4020a3:	00 00 
  4020a5:	74 05                	je     4020ac <launch+0xab>
  4020a7:	e8 44 ec ff ff       	callq  400cf0 <__stack_chk_fail@plt>
  4020ac:	c9                   	leaveq 
  4020ad:	c3                   	retq   

00000000004020ae <stable_launch>:
  4020ae:	53                   	push   %rbx
  4020af:	48 89 3d 52 34 20 00 	mov    %rdi,0x203452(%rip)        # 605508 <global_offset>
  4020b6:	41 b9 00 00 00 00    	mov    $0x0,%r9d
  4020bc:	41 b8 00 00 00 00    	mov    $0x0,%r8d
  4020c2:	b9 32 01 00 00       	mov    $0x132,%ecx
  4020c7:	ba 07 00 00 00       	mov    $0x7,%edx
  4020cc:	be 00 00 10 00       	mov    $0x100000,%esi
  4020d1:	bf 00 60 58 55       	mov    $0x55586000,%edi
  4020d6:	e8 25 ec ff ff       	callq  400d00 <mmap@plt>
  4020db:	48 89 c3             	mov    %rax,%rbx
  4020de:	48 3d 00 60 58 55    	cmp    $0x55586000,%rax
  4020e4:	74 37                	je     40211d <stable_launch+0x6f>
  4020e6:	be 00 00 10 00       	mov    $0x100000,%esi
  4020eb:	48 89 c7             	mov    %rax,%rdi
  4020ee:	e8 fd ec ff ff       	callq  400df0 <munmap@plt>
  4020f3:	b9 00 60 58 55       	mov    $0x55586000,%ecx
  4020f8:	ba 30 37 40 00       	mov    $0x403730,%edx
  4020fd:	be 01 00 00 00       	mov    $0x1,%esi
  402102:	48 8b 3d d7 33 20 00 	mov    0x2033d7(%rip),%rdi        # 6054e0 <stderr@@GLIBC_2.2.5>
  402109:	b8 00 00 00 00       	mov    $0x0,%eax
  40210e:	e8 5d ed ff ff       	callq  400e70 <__fprintf_chk@plt>
  402113:	bf 01 00 00 00       	mov    $0x1,%edi
  402118:	e8 33 ed ff ff       	callq  400e50 <exit@plt>
  40211d:	48 8d 90 f8 ff 0f 00 	lea    0xffff8(%rax),%rdx
  402124:	48 89 15 25 40 20 00 	mov    %rdx,0x204025(%rip)        # 606150 <stack_top>
  40212b:	48 89 e0             	mov    %rsp,%rax
  40212e:	48 89 d4             	mov    %rdx,%rsp
  402131:	48 89 c2             	mov    %rax,%rdx
  402134:	48 89 15 c5 33 20 00 	mov    %rdx,0x2033c5(%rip)        # 605500 <global_save_stack>
  40213b:	48 8b 3d c6 33 20 00 	mov    0x2033c6(%rip),%rdi        # 605508 <global_offset>
  402142:	e8 ba fe ff ff       	callq  402001 <launch>
  402147:	48 8b 05 b2 33 20 00 	mov    0x2033b2(%rip),%rax        # 605500 <global_save_stack>
  40214e:	48 89 c4             	mov    %rax,%rsp
  402151:	be 00 00 10 00       	mov    $0x100000,%esi
  402156:	48 89 df             	mov    %rbx,%rdi
  402159:	e8 92 ec ff ff       	callq  400df0 <munmap@plt>
  40215e:	5b                   	pop    %rbx
  40215f:	c3                   	retq   

0000000000402160 <rio_readinitb>:
  402160:	89 37                	mov    %esi,(%rdi)
  402162:	c7 47 04 00 00 00 00 	movl   $0x0,0x4(%rdi)
  402169:	48 8d 47 10          	lea    0x10(%rdi),%rax
  40216d:	48 89 47 08          	mov    %rax,0x8(%rdi)
  402171:	c3                   	retq   

0000000000402172 <sigalrm_handler>:
  402172:	48 83 ec 08          	sub    $0x8,%rsp
  402176:	b9 00 00 00 00       	mov    $0x0,%ecx
  40217b:	ba 70 37 40 00       	mov    $0x403770,%edx
  402180:	be 01 00 00 00       	mov    $0x1,%esi
  402185:	48 8b 3d 54 33 20 00 	mov    0x203354(%rip),%rdi        # 6054e0 <stderr@@GLIBC_2.2.5>
  40218c:	b8 00 00 00 00       	mov    $0x0,%eax
  402191:	e8 da ec ff ff       	callq  400e70 <__fprintf_chk@plt>
  402196:	bf 01 00 00 00       	mov    $0x1,%edi
  40219b:	e8 b0 ec ff ff       	callq  400e50 <exit@plt>

00000000004021a0 <rio_writen>:
  4021a0:	41 55                	push   %r13
  4021a2:	41 54                	push   %r12
  4021a4:	55                   	push   %rbp
  4021a5:	53                   	push   %rbx
  4021a6:	48 83 ec 08          	sub    $0x8,%rsp
  4021aa:	41 89 fc             	mov    %edi,%r12d
  4021ad:	48 89 f5             	mov    %rsi,%rbp
  4021b0:	49 89 d5             	mov    %rdx,%r13
  4021b3:	48 89 d3             	mov    %rdx,%rbx
  4021b6:	eb 28                	jmp    4021e0 <rio_writen+0x40>
  4021b8:	48 89 da             	mov    %rbx,%rdx
  4021bb:	48 89 ee             	mov    %rbp,%rsi
  4021be:	44 89 e7             	mov    %r12d,%edi
  4021c1:	e8 1a eb ff ff       	callq  400ce0 <write@plt>
  4021c6:	48 85 c0             	test   %rax,%rax
  4021c9:	7f 0f                	jg     4021da <rio_writen+0x3a>
  4021cb:	e8 c0 ea ff ff       	callq  400c90 <__errno_location@plt>
  4021d0:	83 38 04             	cmpl   $0x4,(%rax)
  4021d3:	75 15                	jne    4021ea <rio_writen+0x4a>
  4021d5:	b8 00 00 00 00       	mov    $0x0,%eax
  4021da:	48 29 c3             	sub    %rax,%rbx
  4021dd:	48 01 c5             	add    %rax,%rbp
  4021e0:	48 85 db             	test   %rbx,%rbx
  4021e3:	75 d3                	jne    4021b8 <rio_writen+0x18>
  4021e5:	4c 89 e8             	mov    %r13,%rax
  4021e8:	eb 07                	jmp    4021f1 <rio_writen+0x51>
  4021ea:	48 c7 c0 ff ff ff ff 	mov    $0xffffffffffffffff,%rax
  4021f1:	48 83 c4 08          	add    $0x8,%rsp
  4021f5:	5b                   	pop    %rbx
  4021f6:	5d                   	pop    %rbp
  4021f7:	41 5c                	pop    %r12
  4021f9:	41 5d                	pop    %r13
  4021fb:	c3                   	retq   

00000000004021fc <rio_read>:
  4021fc:	41 55                	push   %r13
  4021fe:	41 54                	push   %r12
  402200:	55                   	push   %rbp
  402201:	53                   	push   %rbx
  402202:	48 83 ec 08          	sub    $0x8,%rsp
  402206:	48 89 fb             	mov    %rdi,%rbx
  402209:	49 89 f5             	mov    %rsi,%r13
  40220c:	49 89 d4             	mov    %rdx,%r12
  40220f:	eb 2e                	jmp    40223f <rio_read+0x43>
  402211:	48 8d 6b 10          	lea    0x10(%rbx),%rbp
  402215:	8b 3b                	mov    (%rbx),%edi
  402217:	ba 00 20 00 00       	mov    $0x2000,%edx
  40221c:	48 89 ee             	mov    %rbp,%rsi
  40221f:	e8 1c eb ff ff       	callq  400d40 <read@plt>
  402224:	89 43 04             	mov    %eax,0x4(%rbx)
  402227:	85 c0                	test   %eax,%eax
  402229:	79 0c                	jns    402237 <rio_read+0x3b>
  40222b:	e8 60 ea ff ff       	callq  400c90 <__errno_location@plt>
  402230:	83 38 04             	cmpl   $0x4,(%rax)
  402233:	74 0a                	je     40223f <rio_read+0x43>
  402235:	eb 37                	jmp    40226e <rio_read+0x72>
  402237:	85 c0                	test   %eax,%eax
  402239:	74 3c                	je     402277 <rio_read+0x7b>
  40223b:	48 89 6b 08          	mov    %rbp,0x8(%rbx)
  40223f:	8b 6b 04             	mov    0x4(%rbx),%ebp
  402242:	85 ed                	test   %ebp,%ebp
  402244:	7e cb                	jle    402211 <rio_read+0x15>
  402246:	89 e8                	mov    %ebp,%eax
  402248:	49 39 c4             	cmp    %rax,%r12
  40224b:	77 03                	ja     402250 <rio_read+0x54>
  40224d:	44 89 e5             	mov    %r12d,%ebp
  402250:	4c 63 e5             	movslq %ebp,%r12
  402253:	48 8b 73 08          	mov    0x8(%rbx),%rsi
  402257:	4c 89 e2             	mov    %r12,%rdx
  40225a:	4c 89 ef             	mov    %r13,%rdi
  40225d:	e8 3e eb ff ff       	callq  400da0 <memcpy@plt>
  402262:	4c 01 63 08          	add    %r12,0x8(%rbx)
  402266:	29 6b 04             	sub    %ebp,0x4(%rbx)
  402269:	4c 89 e0             	mov    %r12,%rax
  40226c:	eb 0e                	jmp    40227c <rio_read+0x80>
  40226e:	48 c7 c0 ff ff ff ff 	mov    $0xffffffffffffffff,%rax
  402275:	eb 05                	jmp    40227c <rio_read+0x80>
  402277:	b8 00 00 00 00       	mov    $0x0,%eax
  40227c:	48 83 c4 08          	add    $0x8,%rsp
  402280:	5b                   	pop    %rbx
  402281:	5d                   	pop    %rbp
  402282:	41 5c                	pop    %r12
  402284:	41 5d                	pop    %r13
  402286:	c3                   	retq   

0000000000402287 <rio_readlineb>:
  402287:	41 55                	push   %r13
  402289:	41 54                	push   %r12
  40228b:	55                   	push   %rbp
  40228c:	53                   	push   %rbx
  40228d:	48 83 ec 18          	sub    $0x18,%rsp
  402291:	49 89 fd             	mov    %rdi,%r13
  402294:	48 89 f5             	mov    %rsi,%rbp
  402297:	49 89 d4             	mov    %rdx,%r12
  40229a:	64 48 8b 04 25 28 00 	mov    %fs:0x28,%rax
  4022a1:	00 00 
  4022a3:	48 89 44 24 08       	mov    %rax,0x8(%rsp)
  4022a8:	31 c0                	xor    %eax,%eax
  4022aa:	bb 01 00 00 00       	mov    $0x1,%ebx
  4022af:	eb 3f                	jmp    4022f0 <rio_readlineb+0x69>
  4022b1:	ba 01 00 00 00       	mov    $0x1,%edx
  4022b6:	48 8d 74 24 07       	lea    0x7(%rsp),%rsi
  4022bb:	4c 89 ef             	mov    %r13,%rdi
  4022be:	e8 39 ff ff ff       	callq  4021fc <rio_read>
  4022c3:	83 f8 01             	cmp    $0x1,%eax
  4022c6:	75 15                	jne    4022dd <rio_readlineb+0x56>
  4022c8:	48 8d 45 01          	lea    0x1(%rbp),%rax
  4022cc:	0f b6 54 24 07       	movzbl 0x7(%rsp),%edx
  4022d1:	88 55 00             	mov    %dl,0x0(%rbp)
  4022d4:	80 7c 24 07 0a       	cmpb   $0xa,0x7(%rsp)
  4022d9:	75 0e                	jne    4022e9 <rio_readlineb+0x62>
  4022db:	eb 1a                	jmp    4022f7 <rio_readlineb+0x70>
  4022dd:	85 c0                	test   %eax,%eax
  4022df:	75 22                	jne    402303 <rio_readlineb+0x7c>
  4022e1:	48 83 fb 01          	cmp    $0x1,%rbx
  4022e5:	75 13                	jne    4022fa <rio_readlineb+0x73>
  4022e7:	eb 23                	jmp    40230c <rio_readlineb+0x85>
  4022e9:	48 83 c3 01          	add    $0x1,%rbx
  4022ed:	48 89 c5             	mov    %rax,%rbp
  4022f0:	4c 39 e3             	cmp    %r12,%rbx
  4022f3:	72 bc                	jb     4022b1 <rio_readlineb+0x2a>
  4022f5:	eb 03                	jmp    4022fa <rio_readlineb+0x73>
  4022f7:	48 89 c5             	mov    %rax,%rbp
  4022fa:	c6 45 00 00          	movb   $0x0,0x0(%rbp)
  4022fe:	48 89 d8             	mov    %rbx,%rax
  402301:	eb 0e                	jmp    402311 <rio_readlineb+0x8a>
  402303:	48 c7 c0 ff ff ff ff 	mov    $0xffffffffffffffff,%rax
  40230a:	eb 05                	jmp    402311 <rio_readlineb+0x8a>
  40230c:	b8 00 00 00 00       	mov    $0x0,%eax
  402311:	48 8b 4c 24 08       	mov    0x8(%rsp),%rcx
  402316:	64 48 33 0c 25 28 00 	xor    %fs:0x28,%rcx
  40231d:	00 00 
  40231f:	74 05                	je     402326 <rio_readlineb+0x9f>
  402321:	e8 ca e9 ff ff       	callq  400cf0 <__stack_chk_fail@plt>
  402326:	48 83 c4 18          	add    $0x18,%rsp
  40232a:	5b                   	pop    %rbx
  40232b:	5d                   	pop    %rbp
  40232c:	41 5c                	pop    %r12
  40232e:	41 5d                	pop    %r13
  402330:	c3                   	retq   

0000000000402331 <urlencode>:
  402331:	41 54                	push   %r12
  402333:	55                   	push   %rbp
  402334:	53                   	push   %rbx
  402335:	48 83 ec 10          	sub    $0x10,%rsp
  402339:	48 89 fb             	mov    %rdi,%rbx
  40233c:	48 89 f5             	mov    %rsi,%rbp
  40233f:	64 48 8b 04 25 28 00 	mov    %fs:0x28,%rax
  402346:	00 00 
  402348:	48 89 44 24 08       	mov    %rax,0x8(%rsp)
  40234d:	31 c0                	xor    %eax,%eax
  40234f:	48 c7 c1 ff ff ff ff 	mov    $0xffffffffffffffff,%rcx
  402356:	f2 ae                	repnz scas %es:(%rdi),%al
  402358:	48 f7 d1             	not    %rcx
  40235b:	8d 41 ff             	lea    -0x1(%rcx),%eax
  40235e:	e9 aa 00 00 00       	jmpq   40240d <urlencode+0xdc>
  402363:	44 0f b6 03          	movzbl (%rbx),%r8d
  402367:	41 80 f8 2a          	cmp    $0x2a,%r8b
  40236b:	0f 94 c2             	sete   %dl
  40236e:	41 80 f8 2d          	cmp    $0x2d,%r8b
  402372:	0f 94 c0             	sete   %al
  402375:	08 c2                	or     %al,%dl
  402377:	75 24                	jne    40239d <urlencode+0x6c>
  402379:	41 80 f8 2e          	cmp    $0x2e,%r8b
  40237d:	74 1e                	je     40239d <urlencode+0x6c>
  40237f:	41 80 f8 5f          	cmp    $0x5f,%r8b
  402383:	74 18                	je     40239d <urlencode+0x6c>
  402385:	41 8d 40 d0          	lea    -0x30(%r8),%eax
  402389:	3c 09                	cmp    $0x9,%al
  40238b:	76 10                	jbe    40239d <urlencode+0x6c>
  40238d:	41 8d 40 bf          	lea    -0x41(%r8),%eax
  402391:	3c 19                	cmp    $0x19,%al
  402393:	76 08                	jbe    40239d <urlencode+0x6c>
  402395:	41 8d 40 9f          	lea    -0x61(%r8),%eax
  402399:	3c 19                	cmp    $0x19,%al
  40239b:	77 0a                	ja     4023a7 <urlencode+0x76>
  40239d:	44 88 45 00          	mov    %r8b,0x0(%rbp)
  4023a1:	48 8d 6d 01          	lea    0x1(%rbp),%rbp
  4023a5:	eb 5f                	jmp    402406 <urlencode+0xd5>
  4023a7:	41 80 f8 20          	cmp    $0x20,%r8b
  4023ab:	75 0a                	jne    4023b7 <urlencode+0x86>
  4023ad:	c6 45 00 2b          	movb   $0x2b,0x0(%rbp)
  4023b1:	48 8d 6d 01          	lea    0x1(%rbp),%rbp
  4023b5:	eb 4f                	jmp    402406 <urlencode+0xd5>
  4023b7:	41 8d 40 e0          	lea    -0x20(%r8),%eax
  4023bb:	3c 5f                	cmp    $0x5f,%al
  4023bd:	0f 96 c2             	setbe  %dl
  4023c0:	41 80 f8 09          	cmp    $0x9,%r8b
  4023c4:	0f 94 c0             	sete   %al
  4023c7:	08 c2                	or     %al,%dl
  4023c9:	74 50                	je     40241b <urlencode+0xea>
  4023cb:	45 0f b6 c0          	movzbl %r8b,%r8d
  4023cf:	b9 08 38 40 00       	mov    $0x403808,%ecx
  4023d4:	ba 08 00 00 00       	mov    $0x8,%edx
  4023d9:	be 01 00 00 00       	mov    $0x1,%esi
  4023de:	48 89 e7             	mov    %rsp,%rdi
  4023e1:	b8 00 00 00 00       	mov    $0x0,%eax
  4023e6:	e8 95 ea ff ff       	callq  400e80 <__sprintf_chk@plt>
  4023eb:	0f b6 04 24          	movzbl (%rsp),%eax
  4023ef:	88 45 00             	mov    %al,0x0(%rbp)
  4023f2:	0f b6 44 24 01       	movzbl 0x1(%rsp),%eax
  4023f7:	88 45 01             	mov    %al,0x1(%rbp)
  4023fa:	0f b6 44 24 02       	movzbl 0x2(%rsp),%eax
  4023ff:	88 45 02             	mov    %al,0x2(%rbp)
  402402:	48 8d 6d 03          	lea    0x3(%rbp),%rbp
  402406:	48 83 c3 01          	add    $0x1,%rbx
  40240a:	44 89 e0             	mov    %r12d,%eax
  40240d:	44 8d 60 ff          	lea    -0x1(%rax),%r12d
  402411:	85 c0                	test   %eax,%eax
  402413:	0f 85 4a ff ff ff    	jne    402363 <urlencode+0x32>
  402419:	eb 05                	jmp    402420 <urlencode+0xef>
  40241b:	b8 ff ff ff ff       	mov    $0xffffffff,%eax
  402420:	48 8b 74 24 08       	mov    0x8(%rsp),%rsi
  402425:	64 48 33 34 25 28 00 	xor    %fs:0x28,%rsi
  40242c:	00 00 
  40242e:	74 05                	je     402435 <urlencode+0x104>
  402430:	e8 bb e8 ff ff       	callq  400cf0 <__stack_chk_fail@plt>
  402435:	48 83 c4 10          	add    $0x10,%rsp
  402439:	5b                   	pop    %rbx
  40243a:	5d                   	pop    %rbp
  40243b:	41 5c                	pop    %r12
  40243d:	c3                   	retq   

000000000040243e <submitr>:
  40243e:	41 57                	push   %r15
  402440:	41 56                	push   %r14
  402442:	41 55                	push   %r13
  402444:	41 54                	push   %r12
  402446:	55                   	push   %rbp
  402447:	53                   	push   %rbx
  402448:	48 81 ec 58 a0 00 00 	sub    $0xa058,%rsp
  40244f:	49 89 fc             	mov    %rdi,%r12
  402452:	89 74 24 04          	mov    %esi,0x4(%rsp)
  402456:	49 89 d7             	mov    %rdx,%r15
  402459:	49 89 ce             	mov    %rcx,%r14
  40245c:	4c 89 44 24 08       	mov    %r8,0x8(%rsp)
  402461:	4d 89 cd             	mov    %r9,%r13
  402464:	48 8b 9c 24 90 a0 00 	mov    0xa090(%rsp),%rbx
  40246b:	00 
  40246c:	64 48 8b 04 25 28 00 	mov    %fs:0x28,%rax
  402473:	00 00 
  402475:	48 89 84 24 48 a0 00 	mov    %rax,0xa048(%rsp)
  40247c:	00 
  40247d:	31 c0                	xor    %eax,%eax
  40247f:	c7 44 24 1c 00 00 00 	movl   $0x0,0x1c(%rsp)
  402486:	00 
  402487:	ba 00 00 00 00       	mov    $0x0,%edx
  40248c:	be 01 00 00 00       	mov    $0x1,%esi
  402491:	bf 02 00 00 00       	mov    $0x2,%edi
  402496:	e8 f5 e9 ff ff       	callq  400e90 <socket@plt>
  40249b:	85 c0                	test   %eax,%eax
  40249d:	79 4e                	jns    4024ed <submitr+0xaf>
  40249f:	48 b8 45 72 72 6f 72 	movabs $0x43203a726f727245,%rax
  4024a6:	3a 20 43 
  4024a9:	48 89 03             	mov    %rax,(%rbx)
  4024ac:	48 b8 6c 69 65 6e 74 	movabs $0x6e7520746e65696c,%rax
  4024b3:	20 75 6e 
  4024b6:	48 89 43 08          	mov    %rax,0x8(%rbx)
  4024ba:	48 b8 61 62 6c 65 20 	movabs $0x206f7420656c6261,%rax
  4024c1:	74 6f 20 
  4024c4:	48 89 43 10          	mov    %rax,0x10(%rbx)
  4024c8:	48 b8 63 72 65 61 74 	movabs $0x7320657461657263,%rax
  4024cf:	65 20 73 
  4024d2:	48 89 43 18          	mov    %rax,0x18(%rbx)
  4024d6:	c7 43 20 6f 63 6b 65 	movl   $0x656b636f,0x20(%rbx)
  4024dd:	66 c7 43 24 74 00    	movw   $0x74,0x24(%rbx)
  4024e3:	b8 ff ff ff ff       	mov    $0xffffffff,%eax
  4024e8:	e9 97 06 00 00       	jmpq   402b84 <submitr+0x746>
  4024ed:	89 c5                	mov    %eax,%ebp
  4024ef:	4c 89 e7             	mov    %r12,%rdi
  4024f2:	e8 79 e8 ff ff       	callq  400d70 <gethostbyname@plt>
  4024f7:	48 85 c0             	test   %rax,%rax
  4024fa:	75 67                	jne    402563 <submitr+0x125>
  4024fc:	48 b8 45 72 72 6f 72 	movabs $0x44203a726f727245,%rax
  402503:	3a 20 44 
  402506:	48 89 03             	mov    %rax,(%rbx)
  402509:	48 b8 4e 53 20 69 73 	movabs $0x6e7520736920534e,%rax
  402510:	20 75 6e 
  402513:	48 89 43 08          	mov    %rax,0x8(%rbx)
  402517:	48 b8 61 62 6c 65 20 	movabs $0x206f7420656c6261,%rax
  40251e:	74 6f 20 
  402521:	48 89 43 10          	mov    %rax,0x10(%rbx)
  402525:	48 b8 72 65 73 6f 6c 	movabs $0x2065766c6f736572,%rax
  40252c:	76 65 20 
  40252f:	48 89 43 18          	mov    %rax,0x18(%rbx)
  402533:	48 b8 73 65 72 76 65 	movabs $0x6120726576726573,%rax
  40253a:	72 20 61 
  40253d:	48 89 43 20          	mov    %rax,0x20(%rbx)
  402541:	c7 43 28 64 64 72 65 	movl   $0x65726464,0x28(%rbx)
  402548:	66 c7 43 2c 73 73    	movw   $0x7373,0x2c(%rbx)
  40254e:	c6 43 2e 00          	movb   $0x0,0x2e(%rbx)
  402552:	89 ef                	mov    %ebp,%edi
  402554:	e8 d7 e7 ff ff       	callq  400d30 <close@plt>
  402559:	b8 ff ff ff ff       	mov    $0xffffffff,%eax
  40255e:	e9 21 06 00 00       	jmpq   402b84 <submitr+0x746>
  402563:	48 c7 44 24 20 00 00 	movq   $0x0,0x20(%rsp)
  40256a:	00 00 
  40256c:	48 c7 44 24 28 00 00 	movq   $0x0,0x28(%rsp)
  402573:	00 00 
  402575:	66 c7 44 24 20 02 00 	movw   $0x2,0x20(%rsp)
  40257c:	48 63 50 14          	movslq 0x14(%rax),%rdx
  402580:	48 8b 40 18          	mov    0x18(%rax),%rax
  402584:	48 8b 30             	mov    (%rax),%rsi
  402587:	48 8d 7c 24 24       	lea    0x24(%rsp),%rdi
  40258c:	b9 0c 00 00 00       	mov    $0xc,%ecx
  402591:	e8 ea e7 ff ff       	callq  400d80 <__memmove_chk@plt>
  402596:	0f b7 44 24 04       	movzwl 0x4(%rsp),%eax
  40259b:	66 c1 c8 08          	ror    $0x8,%ax
  40259f:	66 89 44 24 22       	mov    %ax,0x22(%rsp)
  4025a4:	ba 10 00 00 00       	mov    $0x10,%edx
  4025a9:	48 8d 74 24 20       	lea    0x20(%rsp),%rsi
  4025ae:	89 ef                	mov    %ebp,%edi
  4025b0:	e8 ab e8 ff ff       	callq  400e60 <connect@plt>
  4025b5:	85 c0                	test   %eax,%eax
  4025b7:	79 59                	jns    402612 <submitr+0x1d4>
  4025b9:	48 b8 45 72 72 6f 72 	movabs $0x55203a726f727245,%rax
  4025c0:	3a 20 55 
  4025c3:	48 89 03             	mov    %rax,(%rbx)
  4025c6:	48 b8 6e 61 62 6c 65 	movabs $0x6f7420656c62616e,%rax
  4025cd:	20 74 6f 
  4025d0:	48 89 43 08          	mov    %rax,0x8(%rbx)
  4025d4:	48 b8 20 63 6f 6e 6e 	movabs $0x7463656e6e6f6320,%rax
  4025db:	65 63 74 
  4025de:	48 89 43 10          	mov    %rax,0x10(%rbx)
  4025e2:	48 b8 20 74 6f 20 74 	movabs $0x20656874206f7420,%rax
  4025e9:	68 65 20 
  4025ec:	48 89 43 18          	mov    %rax,0x18(%rbx)
  4025f0:	c7 43 20 73 65 72 76 	movl   $0x76726573,0x20(%rbx)
  4025f7:	66 c7 43 24 65 72    	movw   $0x7265,0x24(%rbx)
  4025fd:	c6 43 26 00          	movb   $0x0,0x26(%rbx)
  402601:	89 ef                	mov    %ebp,%edi
  402603:	e8 28 e7 ff ff       	callq  400d30 <close@plt>
  402608:	b8 ff ff ff ff       	mov    $0xffffffff,%eax
  40260d:	e9 72 05 00 00       	jmpq   402b84 <submitr+0x746>
  402612:	48 c7 c6 ff ff ff ff 	mov    $0xffffffffffffffff,%rsi
  402619:	b8 00 00 00 00       	mov    $0x0,%eax
  40261e:	48 89 f1             	mov    %rsi,%rcx
  402621:	4c 89 ef             	mov    %r13,%rdi
  402624:	f2 ae                	repnz scas %es:(%rdi),%al
  402626:	48 f7 d1             	not    %rcx
  402629:	48 89 ca             	mov    %rcx,%rdx
  40262c:	48 89 f1             	mov    %rsi,%rcx
  40262f:	4c 89 ff             	mov    %r15,%rdi
  402632:	f2 ae                	repnz scas %es:(%rdi),%al
  402634:	48 f7 d1             	not    %rcx
  402637:	49 89 c8             	mov    %rcx,%r8
  40263a:	48 89 f1             	mov    %rsi,%rcx
  40263d:	4c 89 f7             	mov    %r14,%rdi
  402640:	f2 ae                	repnz scas %es:(%rdi),%al
  402642:	48 f7 d1             	not    %rcx
  402645:	4d 8d 44 08 fe       	lea    -0x2(%r8,%rcx,1),%r8
  40264a:	48 89 f1             	mov    %rsi,%rcx
  40264d:	48 8b 7c 24 08       	mov    0x8(%rsp),%rdi
  402652:	f2 ae                	repnz scas %es:(%rdi),%al
  402654:	48 89 c8             	mov    %rcx,%rax
  402657:	48 f7 d0             	not    %rax
  40265a:	49 8d 4c 00 ff       	lea    -0x1(%r8,%rax,1),%rcx
  40265f:	48 8d 44 52 fd       	lea    -0x3(%rdx,%rdx,2),%rax
  402664:	48 8d 84 01 80 00 00 	lea    0x80(%rcx,%rax,1),%rax
  40266b:	00 
  40266c:	48 3d 00 20 00 00    	cmp    $0x2000,%rax
  402672:	76 72                	jbe    4026e6 <submitr+0x2a8>
  402674:	48 b8 45 72 72 6f 72 	movabs $0x52203a726f727245,%rax
  40267b:	3a 20 52 
  40267e:	48 89 03             	mov    %rax,(%rbx)
  402681:	48 b8 65 73 75 6c 74 	movabs $0x747320746c757365,%rax
  402688:	20 73 74 
  40268b:	48 89 43 08          	mov    %rax,0x8(%rbx)
  40268f:	48 b8 72 69 6e 67 20 	movabs $0x6f6f7420676e6972,%rax
  402696:	74 6f 6f 
  402699:	48 89 43 10          	mov    %rax,0x10(%rbx)
  40269d:	48 b8 20 6c 61 72 67 	movabs $0x202e656772616c20,%rax
  4026a4:	65 2e 20 
  4026a7:	48 89 43 18          	mov    %rax,0x18(%rbx)
  4026ab:	48 b8 49 6e 63 72 65 	movabs $0x6573616572636e49,%rax
  4026b2:	61 73 65 
  4026b5:	48 89 43 20          	mov    %rax,0x20(%rbx)
  4026b9:	48 b8 20 53 55 42 4d 	movabs $0x5254494d42555320,%rax
  4026c0:	49 54 52 
  4026c3:	48 89 43 28          	mov    %rax,0x28(%rbx)
  4026c7:	48 b8 5f 4d 41 58 42 	movabs $0x46554258414d5f,%rax
  4026ce:	55 46 00 
  4026d1:	48 89 43 30          	mov    %rax,0x30(%rbx)
  4026d5:	89 ef                	mov    %ebp,%edi
  4026d7:	e8 54 e6 ff ff       	callq  400d30 <close@plt>
  4026dc:	b8 ff ff ff ff       	mov    $0xffffffff,%eax
  4026e1:	e9 9e 04 00 00       	jmpq   402b84 <submitr+0x746>
  4026e6:	48 8d b4 24 40 40 00 	lea    0x4040(%rsp),%rsi
  4026ed:	00 
  4026ee:	b9 00 04 00 00       	mov    $0x400,%ecx
  4026f3:	b8 00 00 00 00       	mov    $0x0,%eax
  4026f8:	48 89 f7             	mov    %rsi,%rdi
  4026fb:	f3 48 ab             	rep stos %rax,%es:(%rdi)
  4026fe:	4c 89 ef             	mov    %r13,%rdi
  402701:	e8 2b fc ff ff       	callq  402331 <urlencode>
  402706:	85 c0                	test   %eax,%eax
  402708:	0f 89 8a 00 00 00    	jns    402798 <submitr+0x35a>
  40270e:	48 b8 45 72 72 6f 72 	movabs $0x52203a726f727245,%rax
  402715:	3a 20 52 
  402718:	48 89 03             	mov    %rax,(%rbx)
  40271b:	48 b8 65 73 75 6c 74 	movabs $0x747320746c757365,%rax
  402722:	20 73 74 
  402725:	48 89 43 08          	mov    %rax,0x8(%rbx)
  402729:	48 b8 72 69 6e 67 20 	movabs $0x6e6f6320676e6972,%rax
  402730:	63 6f 6e 
  402733:	48 89 43 10          	mov    %rax,0x10(%rbx)
  402737:	48 b8 74 61 69 6e 73 	movabs $0x6e6120736e696174,%rax
  40273e:	20 61 6e 
  402741:	48 89 43 18          	mov    %rax,0x18(%rbx)
  402745:	48 b8 20 69 6c 6c 65 	movabs $0x6c6167656c6c6920,%rax
  40274c:	67 61 6c 
  40274f:	48 89 43 20          	mov    %rax,0x20(%rbx)
  402753:	48 b8 20 6f 72 20 75 	movabs $0x72706e7520726f20,%rax
  40275a:	6e 70 72 
  40275d:	48 89 43 28          	mov    %rax,0x28(%rbx)
  402761:	48 b8 69 6e 74 61 62 	movabs $0x20656c6261746e69,%rax
  402768:	6c 65 20 
  40276b:	48 89 43 30          	mov    %rax,0x30(%rbx)
  40276f:	48 b8 63 68 61 72 61 	movabs $0x6574636172616863,%rax
  402776:	63 74 65 
  402779:	48 89 43 38          	mov    %rax,0x38(%rbx)
  40277d:	66 c7 43 40 72 2e    	movw   $0x2e72,0x40(%rbx)
  402783:	c6 43 42 00          	movb   $0x0,0x42(%rbx)
  402787:	89 ef                	mov    %ebp,%edi
  402789:	e8 a2 e5 ff ff       	callq  400d30 <close@plt>
  40278e:	b8 ff ff ff ff       	mov    $0xffffffff,%eax
  402793:	e9 ec 03 00 00       	jmpq   402b84 <submitr+0x746>
  402798:	4c 8d ac 24 40 20 00 	lea    0x2040(%rsp),%r13
  40279f:	00 
  4027a0:	41 54                	push   %r12
  4027a2:	48 8d 84 24 48 40 00 	lea    0x4048(%rsp),%rax
  4027a9:	00 
  4027aa:	50                   	push   %rax
  4027ab:	4d 89 f9             	mov    %r15,%r9
  4027ae:	4d 89 f0             	mov    %r14,%r8
  4027b1:	b9 98 37 40 00       	mov    $0x403798,%ecx
  4027b6:	ba 00 20 00 00       	mov    $0x2000,%edx
  4027bb:	be 01 00 00 00       	mov    $0x1,%esi
  4027c0:	4c 89 ef             	mov    %r13,%rdi
  4027c3:	b8 00 00 00 00       	mov    $0x0,%eax
  4027c8:	e8 b3 e6 ff ff       	callq  400e80 <__sprintf_chk@plt>
  4027cd:	b8 00 00 00 00       	mov    $0x0,%eax
  4027d2:	48 c7 c1 ff ff ff ff 	mov    $0xffffffffffffffff,%rcx
  4027d9:	4c 89 ef             	mov    %r13,%rdi
  4027dc:	f2 ae                	repnz scas %es:(%rdi),%al
  4027de:	48 f7 d1             	not    %rcx
  4027e1:	48 8d 51 ff          	lea    -0x1(%rcx),%rdx
  4027e5:	4c 89 ee             	mov    %r13,%rsi
  4027e8:	89 ef                	mov    %ebp,%edi
  4027ea:	e8 b1 f9 ff ff       	callq  4021a0 <rio_writen>
  4027ef:	48 83 c4 10          	add    $0x10,%rsp
  4027f3:	48 85 c0             	test   %rax,%rax
  4027f6:	79 6e                	jns    402866 <submitr+0x428>
  4027f8:	48 b8 45 72 72 6f 72 	movabs $0x43203a726f727245,%rax
  4027ff:	3a 20 43 
  402802:	48 89 03             	mov    %rax,(%rbx)
  402805:	48 b8 6c 69 65 6e 74 	movabs $0x6e7520746e65696c,%rax
  40280c:	20 75 6e 
  40280f:	48 89 43 08          	mov    %rax,0x8(%rbx)
  402813:	48 b8 61 62 6c 65 20 	movabs $0x206f7420656c6261,%rax
  40281a:	74 6f 20 
  40281d:	48 89 43 10          	mov    %rax,0x10(%rbx)
  402821:	48 b8 77 72 69 74 65 	movabs $0x6f74206574697277,%rax
  402828:	20 74 6f 
  40282b:	48 89 43 18          	mov    %rax,0x18(%rbx)
  40282f:	48 b8 20 74 68 65 20 	movabs $0x7365722065687420,%rax
  402836:	72 65 73 
  402839:	48 89 43 20          	mov    %rax,0x20(%rbx)
  40283d:	48 b8 75 6c 74 20 73 	movabs $0x7672657320746c75,%rax
  402844:	65 72 76 
  402847:	48 89 43 28          	mov    %rax,0x28(%rbx)
  40284b:	66 c7 43 30 65 72    	movw   $0x7265,0x30(%rbx)
  402851:	c6 43 32 00          	movb   $0x0,0x32(%rbx)
  402855:	89 ef                	mov    %ebp,%edi
  402857:	e8 d4 e4 ff ff       	callq  400d30 <close@plt>
  40285c:	b8 ff ff ff ff       	mov    $0xffffffff,%eax
  402861:	e9 1e 03 00 00       	jmpq   402b84 <submitr+0x746>
  402866:	89 ee                	mov    %ebp,%esi
  402868:	48 8d 7c 24 30       	lea    0x30(%rsp),%rdi
  40286d:	e8 ee f8 ff ff       	callq  402160 <rio_readinitb>
  402872:	ba 00 20 00 00       	mov    $0x2000,%edx
  402877:	48 8d b4 24 40 20 00 	lea    0x2040(%rsp),%rsi
  40287e:	00 
  40287f:	48 8d 7c 24 30       	lea    0x30(%rsp),%rdi
  402884:	e8 fe f9 ff ff       	callq  402287 <rio_readlineb>
  402889:	48 85 c0             	test   %rax,%rax
  40288c:	7f 7d                	jg     40290b <submitr+0x4cd>
  40288e:	48 b8 45 72 72 6f 72 	movabs $0x43203a726f727245,%rax
  402895:	3a 20 43 
  402898:	48 89 03             	mov    %rax,(%rbx)
  40289b:	48 b8 6c 69 65 6e 74 	movabs $0x6e7520746e65696c,%rax
  4028a2:	20 75 6e 
  4028a5:	48 89 43 08          	mov    %rax,0x8(%rbx)
  4028a9:	48 b8 61 62 6c 65 20 	movabs $0x206f7420656c6261,%rax
  4028b0:	74 6f 20 
  4028b3:	48 89 43 10          	mov    %rax,0x10(%rbx)
  4028b7:	48 b8 72 65 61 64 20 	movabs $0x7269662064616572,%rax
  4028be:	66 69 72 
  4028c1:	48 89 43 18          	mov    %rax,0x18(%rbx)
  4028c5:	48 b8 73 74 20 68 65 	movabs $0x6564616568207473,%rax
  4028cc:	61 64 65 
  4028cf:	48 89 43 20          	mov    %rax,0x20(%rbx)
  4028d3:	48 b8 72 20 66 72 6f 	movabs $0x72206d6f72662072,%rax
  4028da:	6d 20 72 
  4028dd:	48 89 43 28          	mov    %rax,0x28(%rbx)
  4028e1:	48 b8 65 73 75 6c 74 	movabs $0x657320746c757365,%rax
  4028e8:	20 73 65 
  4028eb:	48 89 43 30          	mov    %rax,0x30(%rbx)
  4028ef:	c7 43 38 72 76 65 72 	movl   $0x72657672,0x38(%rbx)
  4028f6:	c6 43 3c 00          	movb   $0x0,0x3c(%rbx)
  4028fa:	89 ef                	mov    %ebp,%edi
  4028fc:	e8 2f e4 ff ff       	callq  400d30 <close@plt>
  402901:	b8 ff ff ff ff       	mov    $0xffffffff,%eax
  402906:	e9 79 02 00 00       	jmpq   402b84 <submitr+0x746>
  40290b:	4c 8d 84 24 40 80 00 	lea    0x8040(%rsp),%r8
  402912:	00 
  402913:	48 8d 4c 24 1c       	lea    0x1c(%rsp),%rcx
  402918:	48 8d 94 24 40 60 00 	lea    0x6040(%rsp),%rdx
  40291f:	00 
  402920:	be 0f 38 40 00       	mov    $0x40380f,%esi
  402925:	48 8d bc 24 40 20 00 	lea    0x2040(%rsp),%rdi
  40292c:	00 
  40292d:	b8 00 00 00 00       	mov    $0x0,%eax
  402932:	e8 a9 e4 ff ff       	callq  400de0 <__isoc99_sscanf@plt>
  402937:	e9 95 00 00 00       	jmpq   4029d1 <submitr+0x593>
  40293c:	ba 00 20 00 00       	mov    $0x2000,%edx
  402941:	48 8d b4 24 40 20 00 	lea    0x2040(%rsp),%rsi
  402948:	00 
  402949:	48 8d 7c 24 30       	lea    0x30(%rsp),%rdi
  40294e:	e8 34 f9 ff ff       	callq  402287 <rio_readlineb>
  402953:	48 85 c0             	test   %rax,%rax
  402956:	7f 79                	jg     4029d1 <submitr+0x593>
  402958:	48 b8 45 72 72 6f 72 	movabs $0x43203a726f727245,%rax
  40295f:	3a 20 43 
  402962:	48 89 03             	mov    %rax,(%rbx)
  402965:	48 b8 6c 69 65 6e 74 	movabs $0x6e7520746e65696c,%rax
  40296c:	20 75 6e 
  40296f:	48 89 43 08          	mov    %rax,0x8(%rbx)
  402973:	48 b8 61 62 6c 65 20 	movabs $0x206f7420656c6261,%rax
  40297a:	74 6f 20 
  40297d:	48 89 43 10          	mov    %rax,0x10(%rbx)
  402981:	48 b8 72 65 61 64 20 	movabs $0x6165682064616572,%rax
  402988:	68 65 61 
  40298b:	48 89 43 18          	mov    %rax,0x18(%rbx)
  40298f:	48 b8 64 65 72 73 20 	movabs $0x6f72662073726564,%rax
  402996:	66 72 6f 
  402999:	48 89 43 20          	mov    %rax,0x20(%rbx)
  40299d:	48 b8 6d 20 74 68 65 	movabs $0x657220656874206d,%rax
  4029a4:	20 72 65 
  4029a7:	48 89 43 28          	mov    %rax,0x28(%rbx)
  4029ab:	48 b8 73 75 6c 74 20 	movabs $0x72657320746c7573,%rax
  4029b2:	73 65 72 
  4029b5:	48 89 43 30          	mov    %rax,0x30(%rbx)
  4029b9:	c7 43 38 76 65 72 00 	movl   $0x726576,0x38(%rbx)
  4029c0:	89 ef                	mov    %ebp,%edi
  4029c2:	e8 69 e3 ff ff       	callq  400d30 <close@plt>
  4029c7:	b8 ff ff ff ff       	mov    $0xffffffff,%eax
  4029cc:	e9 b3 01 00 00       	jmpq   402b84 <submitr+0x746>
  4029d1:	0f b6 94 24 40 20 00 	movzbl 0x2040(%rsp),%edx
  4029d8:	00 
  4029d9:	b8 0d 00 00 00       	mov    $0xd,%eax
  4029de:	29 d0                	sub    %edx,%eax
  4029e0:	75 1b                	jne    4029fd <submitr+0x5bf>
  4029e2:	0f b6 94 24 41 20 00 	movzbl 0x2041(%rsp),%edx
  4029e9:	00 
  4029ea:	b8 0a 00 00 00       	mov    $0xa,%eax
  4029ef:	29 d0                	sub    %edx,%eax
  4029f1:	75 0a                	jne    4029fd <submitr+0x5bf>
  4029f3:	0f b6 84 24 42 20 00 	movzbl 0x2042(%rsp),%eax
  4029fa:	00 
  4029fb:	f7 d8                	neg    %eax
  4029fd:	85 c0                	test   %eax,%eax
  4029ff:	0f 85 37 ff ff ff    	jne    40293c <submitr+0x4fe>
  402a05:	ba 00 20 00 00       	mov    $0x2000,%edx
  402a0a:	48 8d b4 24 40 20 00 	lea    0x2040(%rsp),%rsi
  402a11:	00 
  402a12:	48 8d 7c 24 30       	lea    0x30(%rsp),%rdi
  402a17:	e8 6b f8 ff ff       	callq  402287 <rio_readlineb>
  402a1c:	48 85 c0             	test   %rax,%rax
  402a1f:	0f 8f 83 00 00 00    	jg     402aa8 <submitr+0x66a>
  402a25:	48 b8 45 72 72 6f 72 	movabs $0x43203a726f727245,%rax
  402a2c:	3a 20 43 
  402a2f:	48 89 03             	mov    %rax,(%rbx)
  402a32:	48 b8 6c 69 65 6e 74 	movabs $0x6e7520746e65696c,%rax
  402a39:	20 75 6e 
  402a3c:	48 89 43 08          	mov    %rax,0x8(%rbx)
  402a40:	48 b8 61 62 6c 65 20 	movabs $0x206f7420656c6261,%rax
  402a47:	74 6f 20 
  402a4a:	48 89 43 10          	mov    %rax,0x10(%rbx)
  402a4e:	48 b8 72 65 61 64 20 	movabs $0x6174732064616572,%rax
  402a55:	73 74 61 
  402a58:	48 89 43 18          	mov    %rax,0x18(%rbx)
  402a5c:	48 b8 74 75 73 20 6d 	movabs $0x7373656d20737574,%rax
  402a63:	65 73 73 
  402a66:	48 89 43 20          	mov    %rax,0x20(%rbx)
  402a6a:	48 b8 61 67 65 20 66 	movabs $0x6d6f726620656761,%rax
  402a71:	72 6f 6d 
  402a74:	48 89 43 28          	mov    %rax,0x28(%rbx)
  402a78:	48 b8 20 72 65 73 75 	movabs $0x20746c7573657220,%rax
  402a7f:	6c 74 20 
  402a82:	48 89 43 30          	mov    %rax,0x30(%rbx)
  402a86:	c7 43 38 73 65 72 76 	movl   $0x76726573,0x38(%rbx)
  402a8d:	66 c7 43 3c 65 72    	movw   $0x7265,0x3c(%rbx)
  402a93:	c6 43 3e 00          	movb   $0x0,0x3e(%rbx)
  402a97:	89 ef                	mov    %ebp,%edi
  402a99:	e8 92 e2 ff ff       	callq  400d30 <close@plt>
  402a9e:	b8 ff ff ff ff       	mov    $0xffffffff,%eax
  402aa3:	e9 dc 00 00 00       	jmpq   402b84 <submitr+0x746>
  402aa8:	44 8b 44 24 1c       	mov    0x1c(%rsp),%r8d
  402aad:	41 81 f8 c8 00 00 00 	cmp    $0xc8,%r8d
  402ab4:	74 37                	je     402aed <submitr+0x6af>
  402ab6:	4c 8d 8c 24 40 80 00 	lea    0x8040(%rsp),%r9
  402abd:	00 
  402abe:	b9 d8 37 40 00       	mov    $0x4037d8,%ecx
  402ac3:	48 c7 c2 ff ff ff ff 	mov    $0xffffffffffffffff,%rdx
  402aca:	be 01 00 00 00       	mov    $0x1,%esi
  402acf:	48 89 df             	mov    %rbx,%rdi
  402ad2:	b8 00 00 00 00       	mov    $0x0,%eax
  402ad7:	e8 a4 e3 ff ff       	callq  400e80 <__sprintf_chk@plt>
  402adc:	89 ef                	mov    %ebp,%edi
  402ade:	e8 4d e2 ff ff       	callq  400d30 <close@plt>
  402ae3:	b8 ff ff ff ff       	mov    $0xffffffff,%eax
  402ae8:	e9 97 00 00 00       	jmpq   402b84 <submitr+0x746>
  402aed:	48 8d b4 24 40 20 00 	lea    0x2040(%rsp),%rsi
  402af4:	00 
  402af5:	48 89 df             	mov    %rbx,%rdi
  402af8:	e8 c3 e1 ff ff       	callq  400cc0 <strcpy@plt>
  402afd:	89 ef                	mov    %ebp,%edi
  402aff:	e8 2c e2 ff ff       	callq  400d30 <close@plt>
  402b04:	0f b6 03             	movzbl (%rbx),%eax
  402b07:	ba 4f 00 00 00       	mov    $0x4f,%edx
  402b0c:	29 c2                	sub    %eax,%edx
  402b0e:	75 22                	jne    402b32 <submitr+0x6f4>
  402b10:	0f b6 4b 01          	movzbl 0x1(%rbx),%ecx
  402b14:	b8 4b 00 00 00       	mov    $0x4b,%eax
  402b19:	29 c8                	sub    %ecx,%eax
  402b1b:	75 17                	jne    402b34 <submitr+0x6f6>
  402b1d:	0f b6 4b 02          	movzbl 0x2(%rbx),%ecx
  402b21:	b8 0a 00 00 00       	mov    $0xa,%eax
  402b26:	29 c8                	sub    %ecx,%eax
  402b28:	75 0a                	jne    402b34 <submitr+0x6f6>
  402b2a:	0f b6 43 03          	movzbl 0x3(%rbx),%eax
  402b2e:	f7 d8                	neg    %eax
  402b30:	eb 02                	jmp    402b34 <submitr+0x6f6>
  402b32:	89 d0                	mov    %edx,%eax
  402b34:	85 c0                	test   %eax,%eax
  402b36:	74 40                	je     402b78 <submitr+0x73a>
  402b38:	bf 20 38 40 00       	mov    $0x403820,%edi
  402b3d:	b9 05 00 00 00       	mov    $0x5,%ecx
  402b42:	48 89 de             	mov    %rbx,%rsi
  402b45:	f3 a6                	repz cmpsb %es:(%rdi),%ds:(%rsi)
  402b47:	0f 97 c0             	seta   %al
  402b4a:	0f 92 c1             	setb   %cl
  402b4d:	29 c8                	sub    %ecx,%eax
  402b4f:	0f be c0             	movsbl %al,%eax
  402b52:	85 c0                	test   %eax,%eax
  402b54:	74 2e                	je     402b84 <submitr+0x746>
  402b56:	85 d2                	test   %edx,%edx
  402b58:	75 13                	jne    402b6d <submitr+0x72f>
  402b5a:	0f b6 43 01          	movzbl 0x1(%rbx),%eax
  402b5e:	ba 4b 00 00 00       	mov    $0x4b,%edx
  402b63:	29 c2                	sub    %eax,%edx
  402b65:	75 06                	jne    402b6d <submitr+0x72f>
  402b67:	0f b6 53 02          	movzbl 0x2(%rbx),%edx
  402b6b:	f7 da                	neg    %edx
  402b6d:	85 d2                	test   %edx,%edx
  402b6f:	75 0e                	jne    402b7f <submitr+0x741>
  402b71:	b8 00 00 00 00       	mov    $0x0,%eax
  402b76:	eb 0c                	jmp    402b84 <submitr+0x746>
  402b78:	b8 00 00 00 00       	mov    $0x0,%eax
  402b7d:	eb 05                	jmp    402b84 <submitr+0x746>
  402b7f:	b8 ff ff ff ff       	mov    $0xffffffff,%eax
  402b84:	48 8b 9c 24 48 a0 00 	mov    0xa048(%rsp),%rbx
  402b8b:	00 
  402b8c:	64 48 33 1c 25 28 00 	xor    %fs:0x28,%rbx
  402b93:	00 00 
  402b95:	74 05                	je     402b9c <submitr+0x75e>
  402b97:	e8 54 e1 ff ff       	callq  400cf0 <__stack_chk_fail@plt>
  402b9c:	48 81 c4 58 a0 00 00 	add    $0xa058,%rsp
  402ba3:	5b                   	pop    %rbx
  402ba4:	5d                   	pop    %rbp
  402ba5:	41 5c                	pop    %r12
  402ba7:	41 5d                	pop    %r13
  402ba9:	41 5e                	pop    %r14
  402bab:	41 5f                	pop    %r15
  402bad:	c3                   	retq   

0000000000402bae <init_timeout>:
  402bae:	85 ff                	test   %edi,%edi
  402bb0:	74 23                	je     402bd5 <init_timeout+0x27>
  402bb2:	53                   	push   %rbx
  402bb3:	89 fb                	mov    %edi,%ebx
  402bb5:	85 ff                	test   %edi,%edi
  402bb7:	79 05                	jns    402bbe <init_timeout+0x10>
  402bb9:	bb 00 00 00 00       	mov    $0x0,%ebx
  402bbe:	be 72 21 40 00       	mov    $0x402172,%esi
  402bc3:	bf 0e 00 00 00       	mov    $0xe,%edi
  402bc8:	e8 93 e1 ff ff       	callq  400d60 <signal@plt>
  402bcd:	89 df                	mov    %ebx,%edi
  402bcf:	e8 4c e1 ff ff       	callq  400d20 <alarm@plt>
  402bd4:	5b                   	pop    %rbx
  402bd5:	f3 c3                	repz retq 

0000000000402bd7 <init_driver>:
  402bd7:	55                   	push   %rbp
  402bd8:	53                   	push   %rbx
  402bd9:	48 83 ec 28          	sub    $0x28,%rsp
  402bdd:	48 89 fd             	mov    %rdi,%rbp
  402be0:	64 48 8b 04 25 28 00 	mov    %fs:0x28,%rax
  402be7:	00 00 
  402be9:	48 89 44 24 18       	mov    %rax,0x18(%rsp)
  402bee:	31 c0                	xor    %eax,%eax
  402bf0:	be 01 00 00 00       	mov    $0x1,%esi
  402bf5:	bf 0d 00 00 00       	mov    $0xd,%edi
  402bfa:	e8 61 e1 ff ff       	callq  400d60 <signal@plt>
  402bff:	be 01 00 00 00       	mov    $0x1,%esi
  402c04:	bf 1d 00 00 00       	mov    $0x1d,%edi
  402c09:	e8 52 e1 ff ff       	callq  400d60 <signal@plt>
  402c0e:	be 01 00 00 00       	mov    $0x1,%esi
  402c13:	bf 1d 00 00 00       	mov    $0x1d,%edi
  402c18:	e8 43 e1 ff ff       	callq  400d60 <signal@plt>
  402c1d:	ba 00 00 00 00       	mov    $0x0,%edx
  402c22:	be 01 00 00 00       	mov    $0x1,%esi
  402c27:	bf 02 00 00 00       	mov    $0x2,%edi
  402c2c:	e8 5f e2 ff ff       	callq  400e90 <socket@plt>
  402c31:	85 c0                	test   %eax,%eax
  402c33:	79 4f                	jns    402c84 <init_driver+0xad>
  402c35:	48 b8 45 72 72 6f 72 	movabs $0x43203a726f727245,%rax
  402c3c:	3a 20 43 
  402c3f:	48 89 45 00          	mov    %rax,0x0(%rbp)
  402c43:	48 b8 6c 69 65 6e 74 	movabs $0x6e7520746e65696c,%rax
  402c4a:	20 75 6e 
  402c4d:	48 89 45 08          	mov    %rax,0x8(%rbp)
  402c51:	48 b8 61 62 6c 65 20 	movabs $0x206f7420656c6261,%rax
  402c58:	74 6f 20 
  402c5b:	48 89 45 10          	mov    %rax,0x10(%rbp)
  402c5f:	48 b8 63 72 65 61 74 	movabs $0x7320657461657263,%rax
  402c66:	65 20 73 
  402c69:	48 89 45 18          	mov    %rax,0x18(%rbp)
  402c6d:	c7 45 20 6f 63 6b 65 	movl   $0x656b636f,0x20(%rbp)
  402c74:	66 c7 45 24 74 00    	movw   $0x74,0x24(%rbp)
  402c7a:	b8 ff ff ff ff       	mov    $0xffffffff,%eax
  402c7f:	e9 2a 01 00 00       	jmpq   402dae <init_driver+0x1d7>
  402c84:	89 c3                	mov    %eax,%ebx
  402c86:	bf 25 38 40 00       	mov    $0x403825,%edi
  402c8b:	e8 e0 e0 ff ff       	callq  400d70 <gethostbyname@plt>
  402c90:	48 85 c0             	test   %rax,%rax
  402c93:	75 68                	jne    402cfd <init_driver+0x126>
  402c95:	48 b8 45 72 72 6f 72 	movabs $0x44203a726f727245,%rax
  402c9c:	3a 20 44 
  402c9f:	48 89 45 00          	mov    %rax,0x0(%rbp)
  402ca3:	48 b8 4e 53 20 69 73 	movabs $0x6e7520736920534e,%rax
  402caa:	20 75 6e 
  402cad:	48 89 45 08          	mov    %rax,0x8(%rbp)
  402cb1:	48 b8 61 62 6c 65 20 	movabs $0x206f7420656c6261,%rax
  402cb8:	74 6f 20 
  402cbb:	48 89 45 10          	mov    %rax,0x10(%rbp)
  402cbf:	48 b8 72 65 73 6f 6c 	movabs $0x2065766c6f736572,%rax
  402cc6:	76 65 20 
  402cc9:	48 89 45 18          	mov    %rax,0x18(%rbp)
  402ccd:	48 b8 73 65 72 76 65 	movabs $0x6120726576726573,%rax
  402cd4:	72 20 61 
  402cd7:	48 89 45 20          	mov    %rax,0x20(%rbp)
  402cdb:	c7 45 28 64 64 72 65 	movl   $0x65726464,0x28(%rbp)
  402ce2:	66 c7 45 2c 73 73    	movw   $0x7373,0x2c(%rbp)
  402ce8:	c6 45 2e 00          	movb   $0x0,0x2e(%rbp)
  402cec:	89 df                	mov    %ebx,%edi
  402cee:	e8 3d e0 ff ff       	callq  400d30 <close@plt>
  402cf3:	b8 ff ff ff ff       	mov    $0xffffffff,%eax
  402cf8:	e9 b1 00 00 00       	jmpq   402dae <init_driver+0x1d7>
  402cfd:	48 c7 04 24 00 00 00 	movq   $0x0,(%rsp)
  402d04:	00 
  402d05:	48 c7 44 24 08 00 00 	movq   $0x0,0x8(%rsp)
  402d0c:	00 00 
  402d0e:	66 c7 04 24 02 00    	movw   $0x2,(%rsp)
  402d14:	48 63 50 14          	movslq 0x14(%rax),%rdx
  402d18:	48 8b 40 18          	mov    0x18(%rax),%rax
  402d1c:	48 8b 30             	mov    (%rax),%rsi
  402d1f:	48 8d 7c 24 04       	lea    0x4(%rsp),%rdi
  402d24:	b9 0c 00 00 00       	mov    $0xc,%ecx
  402d29:	e8 52 e0 ff ff       	callq  400d80 <__memmove_chk@plt>
  402d2e:	66 c7 44 24 02 3c 9a 	movw   $0x9a3c,0x2(%rsp)
  402d35:	ba 10 00 00 00       	mov    $0x10,%edx
  402d3a:	48 89 e6             	mov    %rsp,%rsi
  402d3d:	89 df                	mov    %ebx,%edi
  402d3f:	e8 1c e1 ff ff       	callq  400e60 <connect@plt>
  402d44:	85 c0                	test   %eax,%eax
  402d46:	79 50                	jns    402d98 <init_driver+0x1c1>
  402d48:	48 b8 45 72 72 6f 72 	movabs $0x55203a726f727245,%rax
  402d4f:	3a 20 55 
  402d52:	48 89 45 00          	mov    %rax,0x0(%rbp)
  402d56:	48 b8 6e 61 62 6c 65 	movabs $0x6f7420656c62616e,%rax
  402d5d:	20 74 6f 
  402d60:	48 89 45 08          	mov    %rax,0x8(%rbp)
  402d64:	48 b8 20 63 6f 6e 6e 	movabs $0x7463656e6e6f6320,%rax
  402d6b:	65 63 74 
  402d6e:	48 89 45 10          	mov    %rax,0x10(%rbp)
  402d72:	48 b8 20 74 6f 20 73 	movabs $0x76726573206f7420,%rax
  402d79:	65 72 76 
  402d7c:	48 89 45 18          	mov    %rax,0x18(%rbp)
  402d80:	66 c7 45 20 65 72    	movw   $0x7265,0x20(%rbp)
  402d86:	c6 45 22 00          	movb   $0x0,0x22(%rbp)
  402d8a:	89 df                	mov    %ebx,%edi
  402d8c:	e8 9f df ff ff       	callq  400d30 <close@plt>
  402d91:	b8 ff ff ff ff       	mov    $0xffffffff,%eax
  402d96:	eb 16                	jmp    402dae <init_driver+0x1d7>
  402d98:	89 df                	mov    %ebx,%edi
  402d9a:	e8 91 df ff ff       	callq  400d30 <close@plt>
  402d9f:	66 c7 45 00 4f 4b    	movw   $0x4b4f,0x0(%rbp)
  402da5:	c6 45 02 00          	movb   $0x0,0x2(%rbp)
  402da9:	b8 00 00 00 00       	mov    $0x0,%eax
  402dae:	48 8b 4c 24 18       	mov    0x18(%rsp),%rcx
  402db3:	64 48 33 0c 25 28 00 	xor    %fs:0x28,%rcx
  402dba:	00 00 
  402dbc:	74 05                	je     402dc3 <init_driver+0x1ec>
  402dbe:	e8 2d df ff ff       	callq  400cf0 <__stack_chk_fail@plt>
  402dc3:	48 83 c4 28          	add    $0x28,%rsp
  402dc7:	5b                   	pop    %rbx
  402dc8:	5d                   	pop    %rbp
  402dc9:	c3                   	retq   

0000000000402dca <driver_post>:
  402dca:	53                   	push   %rbx
  402dcb:	4c 89 cb             	mov    %r9,%rbx
  402dce:	45 85 c0             	test   %r8d,%r8d
  402dd1:	74 27                	je     402dfa <driver_post+0x30>
  402dd3:	48 89 ca             	mov    %rcx,%rdx
  402dd6:	be 3c 38 40 00       	mov    $0x40383c,%esi
  402ddb:	bf 01 00 00 00       	mov    $0x1,%edi
  402de0:	b8 00 00 00 00       	mov    $0x0,%eax
  402de5:	e8 16 e0 ff ff       	callq  400e00 <__printf_chk@plt>
  402dea:	66 c7 03 4f 4b       	movw   $0x4b4f,(%rbx)
  402def:	c6 43 02 00          	movb   $0x0,0x2(%rbx)
  402df3:	b8 00 00 00 00       	mov    $0x0,%eax
  402df8:	eb 3f                	jmp    402e39 <driver_post+0x6f>
  402dfa:	48 85 ff             	test   %rdi,%rdi
  402dfd:	74 2c                	je     402e2b <driver_post+0x61>
  402dff:	80 3f 00             	cmpb   $0x0,(%rdi)
  402e02:	74 27                	je     402e2b <driver_post+0x61>
  402e04:	48 83 ec 08          	sub    $0x8,%rsp
  402e08:	41 51                	push   %r9
  402e0a:	49 89 c9             	mov    %rcx,%r9
  402e0d:	49 89 d0             	mov    %rdx,%r8
  402e10:	48 89 f9             	mov    %rdi,%rcx
  402e13:	48 89 f2             	mov    %rsi,%rdx
  402e16:	be 9a 3c 00 00       	mov    $0x3c9a,%esi
  402e1b:	bf 25 38 40 00       	mov    $0x403825,%edi
  402e20:	e8 19 f6 ff ff       	callq  40243e <submitr>
  402e25:	48 83 c4 10          	add    $0x10,%rsp
  402e29:	eb 0e                	jmp    402e39 <driver_post+0x6f>
  402e2b:	66 c7 03 4f 4b       	movw   $0x4b4f,(%rbx)
  402e30:	c6 43 02 00          	movb   $0x0,0x2(%rbx)
  402e34:	b8 00 00 00 00       	mov    $0x0,%eax
  402e39:	5b                   	pop    %rbx
  402e3a:	c3                   	retq   

0000000000402e3b <check>:
  402e3b:	89 f8                	mov    %edi,%eax
  402e3d:	c1 e8 1c             	shr    $0x1c,%eax
  402e40:	85 c0                	test   %eax,%eax
  402e42:	74 1d                	je     402e61 <check+0x26>
  402e44:	b9 00 00 00 00       	mov    $0x0,%ecx
  402e49:	eb 0b                	jmp    402e56 <check+0x1b>
  402e4b:	89 f8                	mov    %edi,%eax
  402e4d:	d3 e8                	shr    %cl,%eax
  402e4f:	3c 0a                	cmp    $0xa,%al
  402e51:	74 14                	je     402e67 <check+0x2c>
  402e53:	83 c1 08             	add    $0x8,%ecx
  402e56:	83 f9 1f             	cmp    $0x1f,%ecx
  402e59:	7e f0                	jle    402e4b <check+0x10>
  402e5b:	b8 01 00 00 00       	mov    $0x1,%eax
  402e60:	c3                   	retq   
  402e61:	b8 00 00 00 00       	mov    $0x0,%eax
  402e66:	c3                   	retq   
  402e67:	b8 00 00 00 00       	mov    $0x0,%eax
  402e6c:	c3                   	retq   

0000000000402e6d <gencookie>:
  402e6d:	53                   	push   %rbx
  402e6e:	83 c7 01             	add    $0x1,%edi
  402e71:	e8 2a de ff ff       	callq  400ca0 <srandom@plt>
  402e76:	e8 45 df ff ff       	callq  400dc0 <random@plt>
  402e7b:	89 c3                	mov    %eax,%ebx
  402e7d:	89 c7                	mov    %eax,%edi
  402e7f:	e8 b7 ff ff ff       	callq  402e3b <check>
  402e84:	85 c0                	test   %eax,%eax
  402e86:	74 ee                	je     402e76 <gencookie+0x9>
  402e88:	89 d8                	mov    %ebx,%eax
  402e8a:	5b                   	pop    %rbx
  402e8b:	c3                   	retq   
  402e8c:	0f 1f 40 00          	nopl   0x0(%rax)

0000000000402e90 <__libc_csu_init>:
  402e90:	41 57                	push   %r15
  402e92:	41 56                	push   %r14
  402e94:	41 89 ff             	mov    %edi,%r15d
  402e97:	41 55                	push   %r13
  402e99:	41 54                	push   %r12
  402e9b:	4c 8d 25 6e 1f 20 00 	lea    0x201f6e(%rip),%r12        # 604e10 <__frame_dummy_init_array_entry>
  402ea2:	55                   	push   %rbp
  402ea3:	48 8d 2d 6e 1f 20 00 	lea    0x201f6e(%rip),%rbp        # 604e18 <__init_array_end>
  402eaa:	53                   	push   %rbx
  402eab:	49 89 f6             	mov    %rsi,%r14
  402eae:	49 89 d5             	mov    %rdx,%r13
  402eb1:	4c 29 e5             	sub    %r12,%rbp
  402eb4:	48 83 ec 08          	sub    $0x8,%rsp
  402eb8:	48 c1 fd 03          	sar    $0x3,%rbp
  402ebc:	e8 87 dd ff ff       	callq  400c48 <_init>
  402ec1:	48 85 ed             	test   %rbp,%rbp
  402ec4:	74 20                	je     402ee6 <__libc_csu_init+0x56>
  402ec6:	31 db                	xor    %ebx,%ebx
  402ec8:	0f 1f 84 00 00 00 00 	nopl   0x0(%rax,%rax,1)
  402ecf:	00 
  402ed0:	4c 89 ea             	mov    %r13,%rdx
  402ed3:	4c 89 f6             	mov    %r14,%rsi
  402ed6:	44 89 ff             	mov    %r15d,%edi
  402ed9:	41 ff 14 dc          	callq  *(%r12,%rbx,8)
  402edd:	48 83 c3 01          	add    $0x1,%rbx
  402ee1:	48 39 eb             	cmp    %rbp,%rbx
  402ee4:	75 ea                	jne    402ed0 <__libc_csu_init+0x40>
  402ee6:	48 83 c4 08          	add    $0x8,%rsp
  402eea:	5b                   	pop    %rbx
  402eeb:	5d                   	pop    %rbp
  402eec:	41 5c                	pop    %r12
  402eee:	41 5d                	pop    %r13
  402ef0:	41 5e                	pop    %r14
  402ef2:	41 5f                	pop    %r15
  402ef4:	c3                   	retq   
  402ef5:	90                   	nop
  402ef6:	66 2e 0f 1f 84 00 00 	nopw   %cs:0x0(%rax,%rax,1)
  402efd:	00 00 00 

0000000000402f00 <__libc_csu_fini>:
  402f00:	f3 c3                	repz retq 

Disassembly of section .fini:

0000000000402f04 <_fini>:
  402f04:	48 83 ec 08          	sub    $0x8,%rsp
  402f08:	48 83 c4 08          	add    $0x8,%rsp
  402f0c:	c3                   	retq   
