
rtarget:     file format elf64-x86-64


Disassembly of section .init:

0000000000400c48 <_init>:
  400c48:	48 83 ec 08          	sub    $0x8,%rsp
  400c4c:	48 8b 05 a5 43 20 00 	mov    0x2043a5(%rip),%rax        # 604ff8 <__gmon_start__>
  400c53:	48 85 c0             	test   %rax,%rax
  400c56:	74 05                	je     400c5d <_init+0x15>
  400c58:	e8 43 02 00 00       	callq  400ea0 <__gmon_start__@plt>
  400c5d:	48 83 c4 08          	add    $0x8,%rsp
  400c61:	c3                   	retq   

Disassembly of section .plt:

0000000000400c70 <.plt>:
  400c70:	ff 35 92 43 20 00    	pushq  0x204392(%rip)        # 605008 <_GLOBAL_OFFSET_TABLE_+0x8>
  400c76:	ff 25 94 43 20 00    	jmpq   *0x204394(%rip)        # 605010 <_GLOBAL_OFFSET_TABLE_+0x10>
  400c7c:	0f 1f 40 00          	nopl   0x0(%rax)

0000000000400c80 <strcasecmp@plt>:
  400c80:	ff 25 92 43 20 00    	jmpq   *0x204392(%rip)        # 605018 <strcasecmp@GLIBC_2.2.5>
  400c86:	68 00 00 00 00       	pushq  $0x0
  400c8b:	e9 e0 ff ff ff       	jmpq   400c70 <.plt>

0000000000400c90 <__errno_location@plt>:
  400c90:	ff 25 8a 43 20 00    	jmpq   *0x20438a(%rip)        # 605020 <__errno_location@GLIBC_2.2.5>
  400c96:	68 01 00 00 00       	pushq  $0x1
  400c9b:	e9 d0 ff ff ff       	jmpq   400c70 <.plt>

0000000000400ca0 <srandom@plt>:
  400ca0:	ff 25 82 43 20 00    	jmpq   *0x204382(%rip)        # 605028 <srandom@GLIBC_2.2.5>
  400ca6:	68 02 00 00 00       	pushq  $0x2
  400cab:	e9 c0 ff ff ff       	jmpq   400c70 <.plt>

0000000000400cb0 <strncmp@plt>:
  400cb0:	ff 25 7a 43 20 00    	jmpq   *0x20437a(%rip)        # 605030 <strncmp@GLIBC_2.2.5>
  400cb6:	68 03 00 00 00       	pushq  $0x3
  400cbb:	e9 b0 ff ff ff       	jmpq   400c70 <.plt>

0000000000400cc0 <strcpy@plt>:
  400cc0:	ff 25 72 43 20 00    	jmpq   *0x204372(%rip)        # 605038 <strcpy@GLIBC_2.2.5>
  400cc6:	68 04 00 00 00       	pushq  $0x4
  400ccb:	e9 a0 ff ff ff       	jmpq   400c70 <.plt>

0000000000400cd0 <puts@plt>:
  400cd0:	ff 25 6a 43 20 00    	jmpq   *0x20436a(%rip)        # 605040 <puts@GLIBC_2.2.5>
  400cd6:	68 05 00 00 00       	pushq  $0x5
  400cdb:	e9 90 ff ff ff       	jmpq   400c70 <.plt>

0000000000400ce0 <write@plt>:
  400ce0:	ff 25 62 43 20 00    	jmpq   *0x204362(%rip)        # 605048 <write@GLIBC_2.2.5>
  400ce6:	68 06 00 00 00       	pushq  $0x6
  400ceb:	e9 80 ff ff ff       	jmpq   400c70 <.plt>

0000000000400cf0 <__stack_chk_fail@plt>:
  400cf0:	ff 25 5a 43 20 00    	jmpq   *0x20435a(%rip)        # 605050 <__stack_chk_fail@GLIBC_2.4>
  400cf6:	68 07 00 00 00       	pushq  $0x7
  400cfb:	e9 70 ff ff ff       	jmpq   400c70 <.plt>

0000000000400d00 <mmap@plt>:
  400d00:	ff 25 52 43 20 00    	jmpq   *0x204352(%rip)        # 605058 <mmap@GLIBC_2.2.5>
  400d06:	68 08 00 00 00       	pushq  $0x8
  400d0b:	e9 60 ff ff ff       	jmpq   400c70 <.plt>

0000000000400d10 <memset@plt>:
  400d10:	ff 25 4a 43 20 00    	jmpq   *0x20434a(%rip)        # 605060 <memset@GLIBC_2.2.5>
  400d16:	68 09 00 00 00       	pushq  $0x9
  400d1b:	e9 50 ff ff ff       	jmpq   400c70 <.plt>

0000000000400d20 <alarm@plt>:
  400d20:	ff 25 42 43 20 00    	jmpq   *0x204342(%rip)        # 605068 <alarm@GLIBC_2.2.5>
  400d26:	68 0a 00 00 00       	pushq  $0xa
  400d2b:	e9 40 ff ff ff       	jmpq   400c70 <.plt>

0000000000400d30 <close@plt>:
  400d30:	ff 25 3a 43 20 00    	jmpq   *0x20433a(%rip)        # 605070 <close@GLIBC_2.2.5>
  400d36:	68 0b 00 00 00       	pushq  $0xb
  400d3b:	e9 30 ff ff ff       	jmpq   400c70 <.plt>

0000000000400d40 <read@plt>:
  400d40:	ff 25 32 43 20 00    	jmpq   *0x204332(%rip)        # 605078 <read@GLIBC_2.2.5>
  400d46:	68 0c 00 00 00       	pushq  $0xc
  400d4b:	e9 20 ff ff ff       	jmpq   400c70 <.plt>

0000000000400d50 <__libc_start_main@plt>:
  400d50:	ff 25 2a 43 20 00    	jmpq   *0x20432a(%rip)        # 605080 <__libc_start_main@GLIBC_2.2.5>
  400d56:	68 0d 00 00 00       	pushq  $0xd
  400d5b:	e9 10 ff ff ff       	jmpq   400c70 <.plt>

0000000000400d60 <signal@plt>:
  400d60:	ff 25 22 43 20 00    	jmpq   *0x204322(%rip)        # 605088 <signal@GLIBC_2.2.5>
  400d66:	68 0e 00 00 00       	pushq  $0xe
  400d6b:	e9 00 ff ff ff       	jmpq   400c70 <.plt>

0000000000400d70 <gethostbyname@plt>:
  400d70:	ff 25 1a 43 20 00    	jmpq   *0x20431a(%rip)        # 605090 <gethostbyname@GLIBC_2.2.5>
  400d76:	68 0f 00 00 00       	pushq  $0xf
  400d7b:	e9 f0 fe ff ff       	jmpq   400c70 <.plt>

0000000000400d80 <__memmove_chk@plt>:
  400d80:	ff 25 12 43 20 00    	jmpq   *0x204312(%rip)        # 605098 <__memmove_chk@GLIBC_2.3.4>
  400d86:	68 10 00 00 00       	pushq  $0x10
  400d8b:	e9 e0 fe ff ff       	jmpq   400c70 <.plt>

0000000000400d90 <strtol@plt>:
  400d90:	ff 25 0a 43 20 00    	jmpq   *0x20430a(%rip)        # 6050a0 <strtol@GLIBC_2.2.5>
  400d96:	68 11 00 00 00       	pushq  $0x11
  400d9b:	e9 d0 fe ff ff       	jmpq   400c70 <.plt>

0000000000400da0 <memcpy@plt>:
  400da0:	ff 25 02 43 20 00    	jmpq   *0x204302(%rip)        # 6050a8 <memcpy@GLIBC_2.14>
  400da6:	68 12 00 00 00       	pushq  $0x12
  400dab:	e9 c0 fe ff ff       	jmpq   400c70 <.plt>

0000000000400db0 <time@plt>:
  400db0:	ff 25 fa 42 20 00    	jmpq   *0x2042fa(%rip)        # 6050b0 <time@GLIBC_2.2.5>
  400db6:	68 13 00 00 00       	pushq  $0x13
  400dbb:	e9 b0 fe ff ff       	jmpq   400c70 <.plt>

0000000000400dc0 <random@plt>:
  400dc0:	ff 25 f2 42 20 00    	jmpq   *0x2042f2(%rip)        # 6050b8 <random@GLIBC_2.2.5>
  400dc6:	68 14 00 00 00       	pushq  $0x14
  400dcb:	e9 a0 fe ff ff       	jmpq   400c70 <.plt>

0000000000400dd0 <_IO_getc@plt>:
  400dd0:	ff 25 ea 42 20 00    	jmpq   *0x2042ea(%rip)        # 6050c0 <_IO_getc@GLIBC_2.2.5>
  400dd6:	68 15 00 00 00       	pushq  $0x15
  400ddb:	e9 90 fe ff ff       	jmpq   400c70 <.plt>

0000000000400de0 <__isoc99_sscanf@plt>:
  400de0:	ff 25 e2 42 20 00    	jmpq   *0x2042e2(%rip)        # 6050c8 <__isoc99_sscanf@GLIBC_2.7>
  400de6:	68 16 00 00 00       	pushq  $0x16
  400deb:	e9 80 fe ff ff       	jmpq   400c70 <.plt>

0000000000400df0 <munmap@plt>:
  400df0:	ff 25 da 42 20 00    	jmpq   *0x2042da(%rip)        # 6050d0 <munmap@GLIBC_2.2.5>
  400df6:	68 17 00 00 00       	pushq  $0x17
  400dfb:	e9 70 fe ff ff       	jmpq   400c70 <.plt>

0000000000400e00 <__printf_chk@plt>:
  400e00:	ff 25 d2 42 20 00    	jmpq   *0x2042d2(%rip)        # 6050d8 <__printf_chk@GLIBC_2.3.4>
  400e06:	68 18 00 00 00       	pushq  $0x18
  400e0b:	e9 60 fe ff ff       	jmpq   400c70 <.plt>

0000000000400e10 <fopen@plt>:
  400e10:	ff 25 ca 42 20 00    	jmpq   *0x2042ca(%rip)        # 6050e0 <fopen@GLIBC_2.2.5>
  400e16:	68 19 00 00 00       	pushq  $0x19
  400e1b:	e9 50 fe ff ff       	jmpq   400c70 <.plt>

0000000000400e20 <getopt@plt>:
  400e20:	ff 25 c2 42 20 00    	jmpq   *0x2042c2(%rip)        # 6050e8 <getopt@GLIBC_2.2.5>
  400e26:	68 1a 00 00 00       	pushq  $0x1a
  400e2b:	e9 40 fe ff ff       	jmpq   400c70 <.plt>

0000000000400e30 <strtoul@plt>:
  400e30:	ff 25 ba 42 20 00    	jmpq   *0x2042ba(%rip)        # 6050f0 <strtoul@GLIBC_2.2.5>
  400e36:	68 1b 00 00 00       	pushq  $0x1b
  400e3b:	e9 30 fe ff ff       	jmpq   400c70 <.plt>

0000000000400e40 <gethostname@plt>:
  400e40:	ff 25 b2 42 20 00    	jmpq   *0x2042b2(%rip)        # 6050f8 <gethostname@GLIBC_2.2.5>
  400e46:	68 1c 00 00 00       	pushq  $0x1c
  400e4b:	e9 20 fe ff ff       	jmpq   400c70 <.plt>

0000000000400e50 <exit@plt>:
  400e50:	ff 25 aa 42 20 00    	jmpq   *0x2042aa(%rip)        # 605100 <exit@GLIBC_2.2.5>
  400e56:	68 1d 00 00 00       	pushq  $0x1d
  400e5b:	e9 10 fe ff ff       	jmpq   400c70 <.plt>

0000000000400e60 <connect@plt>:
  400e60:	ff 25 a2 42 20 00    	jmpq   *0x2042a2(%rip)        # 605108 <connect@GLIBC_2.2.5>
  400e66:	68 1e 00 00 00       	pushq  $0x1e
  400e6b:	e9 00 fe ff ff       	jmpq   400c70 <.plt>

0000000000400e70 <__fprintf_chk@plt>:
  400e70:	ff 25 9a 42 20 00    	jmpq   *0x20429a(%rip)        # 605110 <__fprintf_chk@GLIBC_2.3.4>
  400e76:	68 1f 00 00 00       	pushq  $0x1f
  400e7b:	e9 f0 fd ff ff       	jmpq   400c70 <.plt>

0000000000400e80 <__sprintf_chk@plt>:
  400e80:	ff 25 92 42 20 00    	jmpq   *0x204292(%rip)        # 605118 <__sprintf_chk@GLIBC_2.3.4>
  400e86:	68 20 00 00 00       	pushq  $0x20
  400e8b:	e9 e0 fd ff ff       	jmpq   400c70 <.plt>

0000000000400e90 <socket@plt>:
  400e90:	ff 25 8a 42 20 00    	jmpq   *0x20428a(%rip)        # 605120 <socket@GLIBC_2.2.5>
  400e96:	68 21 00 00 00       	pushq  $0x21
  400e9b:	e9 d0 fd ff ff       	jmpq   400c70 <.plt>

Disassembly of section .plt.got:

0000000000400ea0 <__gmon_start__@plt>:
  400ea0:	ff 25 52 41 20 00    	jmpq   *0x204152(%rip)        # 604ff8 <__gmon_start__>
  400ea6:	66 90                	xchg   %ax,%ax

Disassembly of section .text:

0000000000400eb0 <_start>:
  400eb0:	31 ed                	xor    %ebp,%ebp
  400eb2:	49 89 d1             	mov    %rdx,%r9
  400eb5:	5e                   	pop    %rsi
  400eb6:	48 89 e2             	mov    %rsp,%rdx
  400eb9:	48 83 e4 f0          	and    $0xfffffffffffffff0,%rsp
  400ebd:	50                   	push   %rax
  400ebe:	54                   	push   %rsp
  400ebf:	49 c7 c0 20 30 40 00 	mov    $0x403020,%r8
  400ec6:	48 c7 c1 b0 2f 40 00 	mov    $0x402fb0,%rcx
  400ecd:	48 c7 c7 b5 11 40 00 	mov    $0x4011b5,%rdi
  400ed4:	e8 77 fe ff ff       	callq  400d50 <__libc_start_main@plt>
  400ed9:	f4                   	hlt    
  400eda:	66 0f 1f 44 00 00    	nopw   0x0(%rax,%rax,1)

0000000000400ee0 <deregister_tm_clones>:
  400ee0:	b8 b7 54 60 00       	mov    $0x6054b7,%eax
  400ee5:	55                   	push   %rbp
  400ee6:	48 2d b0 54 60 00    	sub    $0x6054b0,%rax
  400eec:	48 83 f8 0e          	cmp    $0xe,%rax
  400ef0:	48 89 e5             	mov    %rsp,%rbp
  400ef3:	76 1b                	jbe    400f10 <deregister_tm_clones+0x30>
  400ef5:	b8 00 00 00 00       	mov    $0x0,%eax
  400efa:	48 85 c0             	test   %rax,%rax
  400efd:	74 11                	je     400f10 <deregister_tm_clones+0x30>
  400eff:	5d                   	pop    %rbp
  400f00:	bf b0 54 60 00       	mov    $0x6054b0,%edi
  400f05:	ff e0                	jmpq   *%rax
  400f07:	66 0f 1f 84 00 00 00 	nopw   0x0(%rax,%rax,1)
  400f0e:	00 00 
  400f10:	5d                   	pop    %rbp
  400f11:	c3                   	retq   
  400f12:	0f 1f 40 00          	nopl   0x0(%rax)
  400f16:	66 2e 0f 1f 84 00 00 	nopw   %cs:0x0(%rax,%rax,1)
  400f1d:	00 00 00 

0000000000400f20 <register_tm_clones>:
  400f20:	be b0 54 60 00       	mov    $0x6054b0,%esi
  400f25:	55                   	push   %rbp
  400f26:	48 81 ee b0 54 60 00 	sub    $0x6054b0,%rsi
  400f2d:	48 c1 fe 03          	sar    $0x3,%rsi
  400f31:	48 89 e5             	mov    %rsp,%rbp
  400f34:	48 89 f0             	mov    %rsi,%rax
  400f37:	48 c1 e8 3f          	shr    $0x3f,%rax
  400f3b:	48 01 c6             	add    %rax,%rsi
  400f3e:	48 d1 fe             	sar    %rsi
  400f41:	74 15                	je     400f58 <register_tm_clones+0x38>
  400f43:	b8 00 00 00 00       	mov    $0x0,%eax
  400f48:	48 85 c0             	test   %rax,%rax
  400f4b:	74 0b                	je     400f58 <register_tm_clones+0x38>
  400f4d:	5d                   	pop    %rbp
  400f4e:	bf b0 54 60 00       	mov    $0x6054b0,%edi
  400f53:	ff e0                	jmpq   *%rax
  400f55:	0f 1f 00             	nopl   (%rax)
  400f58:	5d                   	pop    %rbp
  400f59:	c3                   	retq   
  400f5a:	66 0f 1f 44 00 00    	nopw   0x0(%rax,%rax,1)

0000000000400f60 <__do_global_dtors_aux>:
  400f60:	80 3d 81 45 20 00 00 	cmpb   $0x0,0x204581(%rip)        # 6054e8 <completed.7594>
  400f67:	75 11                	jne    400f7a <__do_global_dtors_aux+0x1a>
  400f69:	55                   	push   %rbp
  400f6a:	48 89 e5             	mov    %rsp,%rbp
  400f6d:	e8 6e ff ff ff       	callq  400ee0 <deregister_tm_clones>
  400f72:	5d                   	pop    %rbp
  400f73:	c6 05 6e 45 20 00 01 	movb   $0x1,0x20456e(%rip)        # 6054e8 <completed.7594>
  400f7a:	f3 c3                	repz retq 
  400f7c:	0f 1f 40 00          	nopl   0x0(%rax)

0000000000400f80 <frame_dummy>:
  400f80:	bf 20 4e 60 00       	mov    $0x604e20,%edi
  400f85:	48 83 3f 00          	cmpq   $0x0,(%rdi)
  400f89:	75 05                	jne    400f90 <frame_dummy+0x10>
  400f8b:	eb 93                	jmp    400f20 <register_tm_clones>
  400f8d:	0f 1f 00             	nopl   (%rax)
  400f90:	b8 00 00 00 00       	mov    $0x0,%eax
  400f95:	48 85 c0             	test   %rax,%rax
  400f98:	74 f1                	je     400f8b <frame_dummy+0xb>
  400f9a:	55                   	push   %rbp
  400f9b:	48 89 e5             	mov    %rsp,%rbp
  400f9e:	ff d0                	callq  *%rax
  400fa0:	5d                   	pop    %rbp
  400fa1:	e9 7a ff ff ff       	jmpq   400f20 <register_tm_clones>

0000000000400fa6 <usage>:
  400fa6:	48 83 ec 08          	sub    $0x8,%rsp
  400faa:	48 89 fa             	mov    %rdi,%rdx
  400fad:	83 3d 74 45 20 00 00 	cmpl   $0x0,0x204574(%rip)        # 605528 <is_checker>
  400fb4:	74 3e                	je     400ff4 <usage+0x4e>
  400fb6:	be 38 30 40 00       	mov    $0x403038,%esi
  400fbb:	bf 01 00 00 00       	mov    $0x1,%edi
  400fc0:	b8 00 00 00 00       	mov    $0x0,%eax
  400fc5:	e8 36 fe ff ff       	callq  400e00 <__printf_chk@plt>
  400fca:	bf 70 30 40 00       	mov    $0x403070,%edi
  400fcf:	e8 fc fc ff ff       	callq  400cd0 <puts@plt>
  400fd4:	bf e8 31 40 00       	mov    $0x4031e8,%edi
  400fd9:	e8 f2 fc ff ff       	callq  400cd0 <puts@plt>
  400fde:	bf 98 30 40 00       	mov    $0x403098,%edi
  400fe3:	e8 e8 fc ff ff       	callq  400cd0 <puts@plt>
  400fe8:	bf 02 32 40 00       	mov    $0x403202,%edi
  400fed:	e8 de fc ff ff       	callq  400cd0 <puts@plt>
  400ff2:	eb 32                	jmp    401026 <usage+0x80>
  400ff4:	be 1e 32 40 00       	mov    $0x40321e,%esi
  400ff9:	bf 01 00 00 00       	mov    $0x1,%edi
  400ffe:	b8 00 00 00 00       	mov    $0x0,%eax
  401003:	e8 f8 fd ff ff       	callq  400e00 <__printf_chk@plt>
  401008:	bf c0 30 40 00       	mov    $0x4030c0,%edi
  40100d:	e8 be fc ff ff       	callq  400cd0 <puts@plt>
  401012:	bf e8 30 40 00       	mov    $0x4030e8,%edi
  401017:	e8 b4 fc ff ff       	callq  400cd0 <puts@plt>
  40101c:	bf 3c 32 40 00       	mov    $0x40323c,%edi
  401021:	e8 aa fc ff ff       	callq  400cd0 <puts@plt>
  401026:	bf 00 00 00 00       	mov    $0x0,%edi
  40102b:	e8 20 fe ff ff       	callq  400e50 <exit@plt>

0000000000401030 <initialize_target>:
  401030:	55                   	push   %rbp
  401031:	53                   	push   %rbx
  401032:	48 81 ec 18 21 00 00 	sub    $0x2118,%rsp
  401039:	89 f5                	mov    %esi,%ebp
  40103b:	64 48 8b 04 25 28 00 	mov    %fs:0x28,%rax
  401042:	00 00 
  401044:	48 89 84 24 08 21 00 	mov    %rax,0x2108(%rsp)
  40104b:	00 
  40104c:	31 c0                	xor    %eax,%eax
  40104e:	89 3d c4 44 20 00    	mov    %edi,0x2044c4(%rip)        # 605518 <check_level>
  401054:	8b 3d 0e 41 20 00    	mov    0x20410e(%rip),%edi        # 605168 <target_id>
  40105a:	e8 2d 1f 00 00       	callq  402f8c <gencookie>
  40105f:	89 05 bf 44 20 00    	mov    %eax,0x2044bf(%rip)        # 605524 <cookie>
  401065:	89 c7                	mov    %eax,%edi
  401067:	e8 20 1f 00 00       	callq  402f8c <gencookie>
  40106c:	89 05 ae 44 20 00    	mov    %eax,0x2044ae(%rip)        # 605520 <authkey>
  401072:	8b 05 f0 40 20 00    	mov    0x2040f0(%rip),%eax        # 605168 <target_id>
  401078:	8d 78 01             	lea    0x1(%rax),%edi
  40107b:	e8 20 fc ff ff       	callq  400ca0 <srandom@plt>
  401080:	e8 3b fd ff ff       	callq  400dc0 <random@plt>
  401085:	89 c7                	mov    %eax,%edi
  401087:	e8 03 03 00 00       	callq  40138f <scramble>
  40108c:	89 c3                	mov    %eax,%ebx
  40108e:	85 ed                	test   %ebp,%ebp
  401090:	74 18                	je     4010aa <initialize_target+0x7a>
  401092:	bf 00 00 00 00       	mov    $0x0,%edi
  401097:	e8 14 fd ff ff       	callq  400db0 <time@plt>
  40109c:	89 c7                	mov    %eax,%edi
  40109e:	e8 fd fb ff ff       	callq  400ca0 <srandom@plt>
  4010a3:	e8 18 fd ff ff       	callq  400dc0 <random@plt>
  4010a8:	eb 05                	jmp    4010af <initialize_target+0x7f>
  4010aa:	b8 00 00 00 00       	mov    $0x0,%eax
  4010af:	01 c3                	add    %eax,%ebx
  4010b1:	0f b7 db             	movzwl %bx,%ebx
  4010b4:	8d 04 dd 00 01 00 00 	lea    0x100(,%rbx,8),%eax
  4010bb:	89 c0                	mov    %eax,%eax
  4010bd:	48 89 05 dc 43 20 00 	mov    %rax,0x2043dc(%rip)        # 6054a0 <buf_offset>
  4010c4:	c6 05 7d 50 20 00 72 	movb   $0x72,0x20507d(%rip)        # 606148 <target_prefix>
  4010cb:	83 3d d6 43 20 00 00 	cmpl   $0x0,0x2043d6(%rip)        # 6054a8 <notify>
  4010d2:	0f 84 bb 00 00 00    	je     401193 <initialize_target+0x163>
  4010d8:	83 3d 49 44 20 00 00 	cmpl   $0x0,0x204449(%rip)        # 605528 <is_checker>
  4010df:	0f 85 ae 00 00 00    	jne    401193 <initialize_target+0x163>
  4010e5:	be 00 01 00 00       	mov    $0x100,%esi
  4010ea:	48 89 e7             	mov    %rsp,%rdi
  4010ed:	e8 4e fd ff ff       	callq  400e40 <gethostname@plt>
  4010f2:	85 c0                	test   %eax,%eax
  4010f4:	74 25                	je     40111b <initialize_target+0xeb>
  4010f6:	bf 18 31 40 00       	mov    $0x403118,%edi
  4010fb:	e8 d0 fb ff ff       	callq  400cd0 <puts@plt>
  401100:	bf 08 00 00 00       	mov    $0x8,%edi
  401105:	e8 46 fd ff ff       	callq  400e50 <exit@plt>
  40110a:	48 89 e6             	mov    %rsp,%rsi
  40110d:	e8 6e fb ff ff       	callq  400c80 <strcasecmp@plt>
  401112:	85 c0                	test   %eax,%eax
  401114:	74 21                	je     401137 <initialize_target+0x107>
  401116:	83 c3 01             	add    $0x1,%ebx
  401119:	eb 05                	jmp    401120 <initialize_target+0xf0>
  40111b:	bb 00 00 00 00       	mov    $0x0,%ebx
  401120:	48 63 c3             	movslq %ebx,%rax
  401123:	48 8b 3c c5 80 51 60 	mov    0x605180(,%rax,8),%rdi
  40112a:	00 
  40112b:	48 85 ff             	test   %rdi,%rdi
  40112e:	75 da                	jne    40110a <initialize_target+0xda>
  401130:	b8 00 00 00 00       	mov    $0x0,%eax
  401135:	eb 05                	jmp    40113c <initialize_target+0x10c>
  401137:	b8 01 00 00 00       	mov    $0x1,%eax
  40113c:	85 c0                	test   %eax,%eax
  40113e:	75 1c                	jne    40115c <initialize_target+0x12c>
  401140:	48 89 e2             	mov    %rsp,%rdx
  401143:	be 50 31 40 00       	mov    $0x403150,%esi
  401148:	bf 01 00 00 00       	mov    $0x1,%edi
  40114d:	e8 ae fc ff ff       	callq  400e00 <__printf_chk@plt>
  401152:	bf 08 00 00 00       	mov    $0x8,%edi
  401157:	e8 f4 fc ff ff       	callq  400e50 <exit@plt>
  40115c:	48 8d bc 24 00 01 00 	lea    0x100(%rsp),%rdi
  401163:	00 
  401164:	e8 8d 1b 00 00       	callq  402cf6 <init_driver>
  401169:	85 c0                	test   %eax,%eax
  40116b:	79 26                	jns    401193 <initialize_target+0x163>
  40116d:	48 8d 94 24 00 01 00 	lea    0x100(%rsp),%rdx
  401174:	00 
  401175:	be 90 31 40 00       	mov    $0x403190,%esi
  40117a:	bf 01 00 00 00       	mov    $0x1,%edi
  40117f:	b8 00 00 00 00       	mov    $0x0,%eax
  401184:	e8 77 fc ff ff       	callq  400e00 <__printf_chk@plt>
  401189:	bf 08 00 00 00       	mov    $0x8,%edi
  40118e:	e8 bd fc ff ff       	callq  400e50 <exit@plt>
  401193:	48 8b 84 24 08 21 00 	mov    0x2108(%rsp),%rax
  40119a:	00 
  40119b:	64 48 33 04 25 28 00 	xor    %fs:0x28,%rax
  4011a2:	00 00 
  4011a4:	74 05                	je     4011ab <initialize_target+0x17b>
  4011a6:	e8 45 fb ff ff       	callq  400cf0 <__stack_chk_fail@plt>
  4011ab:	48 81 c4 18 21 00 00 	add    $0x2118,%rsp
  4011b2:	5b                   	pop    %rbx
  4011b3:	5d                   	pop    %rbp
  4011b4:	c3                   	retq   

00000000004011b5 <main>:
  4011b5:	41 56                	push   %r14
  4011b7:	41 55                	push   %r13
  4011b9:	41 54                	push   %r12
  4011bb:	55                   	push   %rbp
  4011bc:	53                   	push   %rbx
  4011bd:	41 89 fc             	mov    %edi,%r12d
  4011c0:	48 89 f3             	mov    %rsi,%rbx
  4011c3:	be 31 20 40 00       	mov    $0x402031,%esi
  4011c8:	bf 0b 00 00 00       	mov    $0xb,%edi
  4011cd:	e8 8e fb ff ff       	callq  400d60 <signal@plt>
  4011d2:	be e3 1f 40 00       	mov    $0x401fe3,%esi
  4011d7:	bf 07 00 00 00       	mov    $0x7,%edi
  4011dc:	e8 7f fb ff ff       	callq  400d60 <signal@plt>
  4011e1:	be 7f 20 40 00       	mov    $0x40207f,%esi
  4011e6:	bf 04 00 00 00       	mov    $0x4,%edi
  4011eb:	e8 70 fb ff ff       	callq  400d60 <signal@plt>
  4011f0:	83 3d 31 43 20 00 00 	cmpl   $0x0,0x204331(%rip)        # 605528 <is_checker>
  4011f7:	74 20                	je     401219 <main+0x64>
  4011f9:	be cd 20 40 00       	mov    $0x4020cd,%esi
  4011fe:	bf 0e 00 00 00       	mov    $0xe,%edi
  401203:	e8 58 fb ff ff       	callq  400d60 <signal@plt>
  401208:	bf 05 00 00 00       	mov    $0x5,%edi
  40120d:	e8 0e fb ff ff       	callq  400d20 <alarm@plt>
  401212:	bd 5a 32 40 00       	mov    $0x40325a,%ebp
  401217:	eb 05                	jmp    40121e <main+0x69>
  401219:	bd 55 32 40 00       	mov    $0x403255,%ebp
  40121e:	48 8b 05 9b 42 20 00 	mov    0x20429b(%rip),%rax        # 6054c0 <stdin@@GLIBC_2.2.5>
  401225:	48 89 05 e4 42 20 00 	mov    %rax,0x2042e4(%rip)        # 605510 <infile>
  40122c:	41 bd 00 00 00 00    	mov    $0x0,%r13d
  401232:	41 be 00 00 00 00    	mov    $0x0,%r14d
  401238:	e9 c6 00 00 00       	jmpq   401303 <main+0x14e>
  40123d:	83 e8 61             	sub    $0x61,%eax
  401240:	3c 10                	cmp    $0x10,%al
  401242:	0f 87 9c 00 00 00    	ja     4012e4 <main+0x12f>
  401248:	0f b6 c0             	movzbl %al,%eax
  40124b:	ff 24 c5 a0 32 40 00 	jmpq   *0x4032a0(,%rax,8)
  401252:	48 8b 3b             	mov    (%rbx),%rdi
  401255:	e8 4c fd ff ff       	callq  400fa6 <usage>
  40125a:	be 3d 36 40 00       	mov    $0x40363d,%esi
  40125f:	48 8b 3d 62 42 20 00 	mov    0x204262(%rip),%rdi        # 6054c8 <optarg@@GLIBC_2.2.5>
  401266:	e8 a5 fb ff ff       	callq  400e10 <fopen@plt>
  40126b:	48 89 05 9e 42 20 00 	mov    %rax,0x20429e(%rip)        # 605510 <infile>
  401272:	48 85 c0             	test   %rax,%rax
  401275:	0f 85 88 00 00 00    	jne    401303 <main+0x14e>
  40127b:	48 8b 0d 46 42 20 00 	mov    0x204246(%rip),%rcx        # 6054c8 <optarg@@GLIBC_2.2.5>
  401282:	ba 62 32 40 00       	mov    $0x403262,%edx
  401287:	be 01 00 00 00       	mov    $0x1,%esi
  40128c:	48 8b 3d 4d 42 20 00 	mov    0x20424d(%rip),%rdi        # 6054e0 <stderr@@GLIBC_2.2.5>
  401293:	e8 d8 fb ff ff       	callq  400e70 <__fprintf_chk@plt>
  401298:	b8 01 00 00 00       	mov    $0x1,%eax
  40129d:	e9 e4 00 00 00       	jmpq   401386 <main+0x1d1>
  4012a2:	ba 10 00 00 00       	mov    $0x10,%edx
  4012a7:	be 00 00 00 00       	mov    $0x0,%esi
  4012ac:	48 8b 3d 15 42 20 00 	mov    0x204215(%rip),%rdi        # 6054c8 <optarg@@GLIBC_2.2.5>
  4012b3:	e8 78 fb ff ff       	callq  400e30 <strtoul@plt>
  4012b8:	41 89 c6             	mov    %eax,%r14d
  4012bb:	eb 46                	jmp    401303 <main+0x14e>
  4012bd:	ba 0a 00 00 00       	mov    $0xa,%edx
  4012c2:	be 00 00 00 00       	mov    $0x0,%esi
  4012c7:	48 8b 3d fa 41 20 00 	mov    0x2041fa(%rip),%rdi        # 6054c8 <optarg@@GLIBC_2.2.5>
  4012ce:	e8 bd fa ff ff       	callq  400d90 <strtol@plt>
  4012d3:	41 89 c5             	mov    %eax,%r13d
  4012d6:	eb 2b                	jmp    401303 <main+0x14e>
  4012d8:	c7 05 c6 41 20 00 00 	movl   $0x0,0x2041c6(%rip)        # 6054a8 <notify>
  4012df:	00 00 00 
  4012e2:	eb 1f                	jmp    401303 <main+0x14e>
  4012e4:	0f be d2             	movsbl %dl,%edx
  4012e7:	be 7f 32 40 00       	mov    $0x40327f,%esi
  4012ec:	bf 01 00 00 00       	mov    $0x1,%edi
  4012f1:	b8 00 00 00 00       	mov    $0x0,%eax
  4012f6:	e8 05 fb ff ff       	callq  400e00 <__printf_chk@plt>
  4012fb:	48 8b 3b             	mov    (%rbx),%rdi
  4012fe:	e8 a3 fc ff ff       	callq  400fa6 <usage>
  401303:	48 89 ea             	mov    %rbp,%rdx
  401306:	48 89 de             	mov    %rbx,%rsi
  401309:	44 89 e7             	mov    %r12d,%edi
  40130c:	e8 0f fb ff ff       	callq  400e20 <getopt@plt>
  401311:	89 c2                	mov    %eax,%edx
  401313:	3c ff                	cmp    $0xff,%al
  401315:	0f 85 22 ff ff ff    	jne    40123d <main+0x88>
  40131b:	be 01 00 00 00       	mov    $0x1,%esi
  401320:	44 89 ef             	mov    %r13d,%edi
  401323:	e8 08 fd ff ff       	callq  401030 <initialize_target>
  401328:	83 3d f9 41 20 00 00 	cmpl   $0x0,0x2041f9(%rip)        # 605528 <is_checker>
  40132f:	74 2a                	je     40135b <main+0x1a6>
  401331:	44 3b 35 e8 41 20 00 	cmp    0x2041e8(%rip),%r14d        # 605520 <authkey>
  401338:	74 21                	je     40135b <main+0x1a6>
  40133a:	44 89 f2             	mov    %r14d,%edx
  40133d:	be b8 31 40 00       	mov    $0x4031b8,%esi
  401342:	bf 01 00 00 00       	mov    $0x1,%edi
  401347:	b8 00 00 00 00       	mov    $0x0,%eax
  40134c:	e8 af fa ff ff       	callq  400e00 <__printf_chk@plt>
  401351:	b8 00 00 00 00       	mov    $0x0,%eax
  401356:	e8 24 09 00 00       	callq  401c7f <check_fail>
  40135b:	8b 15 c3 41 20 00    	mov    0x2041c3(%rip),%edx        # 605524 <cookie>
  401361:	be 92 32 40 00       	mov    $0x403292,%esi
  401366:	bf 01 00 00 00       	mov    $0x1,%edi
  40136b:	b8 00 00 00 00       	mov    $0x0,%eax
  401370:	e8 8b fa ff ff       	callq  400e00 <__printf_chk@plt>
  401375:	48 8b 3d 24 41 20 00 	mov    0x204124(%rip),%rdi        # 6054a0 <buf_offset>
  40137c:	e8 9f 0d 00 00       	callq  402120 <launch>
  401381:	b8 00 00 00 00       	mov    $0x0,%eax
  401386:	5b                   	pop    %rbx
  401387:	5d                   	pop    %rbp
  401388:	41 5c                	pop    %r12
  40138a:	41 5d                	pop    %r13
  40138c:	41 5e                	pop    %r14
  40138e:	c3                   	retq   

000000000040138f <scramble>:
  40138f:	48 83 ec 38          	sub    $0x38,%rsp
  401393:	64 48 8b 04 25 28 00 	mov    %fs:0x28,%rax
  40139a:	00 00 
  40139c:	48 89 44 24 28       	mov    %rax,0x28(%rsp)
  4013a1:	31 c0                	xor    %eax,%eax
  4013a3:	eb 10                	jmp    4013b5 <scramble+0x26>
  4013a5:	69 d0 0a e1 00 00    	imul   $0xe10a,%eax,%edx
  4013ab:	01 fa                	add    %edi,%edx
  4013ad:	89 c1                	mov    %eax,%ecx
  4013af:	89 14 8c             	mov    %edx,(%rsp,%rcx,4)
  4013b2:	83 c0 01             	add    $0x1,%eax
  4013b5:	83 f8 09             	cmp    $0x9,%eax
  4013b8:	76 eb                	jbe    4013a5 <scramble+0x16>
  4013ba:	8b 44 24 04          	mov    0x4(%rsp),%eax
  4013be:	69 c0 40 62 00 00    	imul   $0x6240,%eax,%eax
  4013c4:	89 44 24 04          	mov    %eax,0x4(%rsp)
  4013c8:	8b 44 24 0c          	mov    0xc(%rsp),%eax
  4013cc:	69 c0 db 14 00 00    	imul   $0x14db,%eax,%eax
  4013d2:	89 44 24 0c          	mov    %eax,0xc(%rsp)
  4013d6:	8b 44 24 18          	mov    0x18(%rsp),%eax
  4013da:	69 c0 1e a8 00 00    	imul   $0xa81e,%eax,%eax
  4013e0:	89 44 24 18          	mov    %eax,0x18(%rsp)
  4013e4:	8b 44 24 18          	mov    0x18(%rsp),%eax
  4013e8:	69 c0 33 35 00 00    	imul   $0x3533,%eax,%eax
  4013ee:	89 44 24 18          	mov    %eax,0x18(%rsp)
  4013f2:	8b 44 24 1c          	mov    0x1c(%rsp),%eax
  4013f6:	69 c0 98 af 00 00    	imul   $0xaf98,%eax,%eax
  4013fc:	89 44 24 1c          	mov    %eax,0x1c(%rsp)
  401400:	8b 44 24 10          	mov    0x10(%rsp),%eax
  401404:	69 c0 2b 30 00 00    	imul   $0x302b,%eax,%eax
  40140a:	89 44 24 10          	mov    %eax,0x10(%rsp)
  40140e:	8b 44 24 14          	mov    0x14(%rsp),%eax
  401412:	69 c0 ad ba 00 00    	imul   $0xbaad,%eax,%eax
  401418:	89 44 24 14          	mov    %eax,0x14(%rsp)
  40141c:	8b 44 24 18          	mov    0x18(%rsp),%eax
  401420:	69 c0 37 4c 00 00    	imul   $0x4c37,%eax,%eax
  401426:	89 44 24 18          	mov    %eax,0x18(%rsp)
  40142a:	8b 44 24 20          	mov    0x20(%rsp),%eax
  40142e:	69 c0 dd a8 00 00    	imul   $0xa8dd,%eax,%eax
  401434:	89 44 24 20          	mov    %eax,0x20(%rsp)
  401438:	8b 44 24 10          	mov    0x10(%rsp),%eax
  40143c:	69 c0 aa 55 00 00    	imul   $0x55aa,%eax,%eax
  401442:	89 44 24 10          	mov    %eax,0x10(%rsp)
  401446:	8b 44 24 20          	mov    0x20(%rsp),%eax
  40144a:	69 c0 d9 2f 00 00    	imul   $0x2fd9,%eax,%eax
  401450:	89 44 24 20          	mov    %eax,0x20(%rsp)
  401454:	8b 44 24 14          	mov    0x14(%rsp),%eax
  401458:	69 c0 6e 49 00 00    	imul   $0x496e,%eax,%eax
  40145e:	89 44 24 14          	mov    %eax,0x14(%rsp)
  401462:	8b 44 24 1c          	mov    0x1c(%rsp),%eax
  401466:	69 c0 3f 76 00 00    	imul   $0x763f,%eax,%eax
  40146c:	89 44 24 1c          	mov    %eax,0x1c(%rsp)
  401470:	8b 44 24 18          	mov    0x18(%rsp),%eax
  401474:	69 c0 bf 58 00 00    	imul   $0x58bf,%eax,%eax
  40147a:	89 44 24 18          	mov    %eax,0x18(%rsp)
  40147e:	8b 44 24 08          	mov    0x8(%rsp),%eax
  401482:	69 c0 7c 77 00 00    	imul   $0x777c,%eax,%eax
  401488:	89 44 24 08          	mov    %eax,0x8(%rsp)
  40148c:	8b 44 24 20          	mov    0x20(%rsp),%eax
  401490:	69 c0 52 2c 00 00    	imul   $0x2c52,%eax,%eax
  401496:	89 44 24 20          	mov    %eax,0x20(%rsp)
  40149a:	8b 44 24 24          	mov    0x24(%rsp),%eax
  40149e:	69 c0 c7 ec 00 00    	imul   $0xecc7,%eax,%eax
  4014a4:	89 44 24 24          	mov    %eax,0x24(%rsp)
  4014a8:	8b 44 24 04          	mov    0x4(%rsp),%eax
  4014ac:	69 c0 cd ac 00 00    	imul   $0xaccd,%eax,%eax
  4014b2:	89 44 24 04          	mov    %eax,0x4(%rsp)
  4014b6:	8b 44 24 10          	mov    0x10(%rsp),%eax
  4014ba:	69 c0 48 6c 00 00    	imul   $0x6c48,%eax,%eax
  4014c0:	89 44 24 10          	mov    %eax,0x10(%rsp)
  4014c4:	8b 44 24 20          	mov    0x20(%rsp),%eax
  4014c8:	69 c0 d4 b7 00 00    	imul   $0xb7d4,%eax,%eax
  4014ce:	89 44 24 20          	mov    %eax,0x20(%rsp)
  4014d2:	8b 44 24 24          	mov    0x24(%rsp),%eax
  4014d6:	69 c0 ef 58 00 00    	imul   $0x58ef,%eax,%eax
  4014dc:	89 44 24 24          	mov    %eax,0x24(%rsp)
  4014e0:	8b 44 24 18          	mov    0x18(%rsp),%eax
  4014e4:	69 c0 2c 3c 00 00    	imul   $0x3c2c,%eax,%eax
  4014ea:	89 44 24 18          	mov    %eax,0x18(%rsp)
  4014ee:	8b 44 24 04          	mov    0x4(%rsp),%eax
  4014f2:	69 c0 28 72 00 00    	imul   $0x7228,%eax,%eax
  4014f8:	89 44 24 04          	mov    %eax,0x4(%rsp)
  4014fc:	8b 44 24 14          	mov    0x14(%rsp),%eax
  401500:	69 c0 cb df 00 00    	imul   $0xdfcb,%eax,%eax
  401506:	89 44 24 14          	mov    %eax,0x14(%rsp)
  40150a:	8b 44 24 14          	mov    0x14(%rsp),%eax
  40150e:	69 c0 eb ab 00 00    	imul   $0xabeb,%eax,%eax
  401514:	89 44 24 14          	mov    %eax,0x14(%rsp)
  401518:	8b 04 24             	mov    (%rsp),%eax
  40151b:	69 c0 c2 56 00 00    	imul   $0x56c2,%eax,%eax
  401521:	89 04 24             	mov    %eax,(%rsp)
  401524:	8b 44 24 10          	mov    0x10(%rsp),%eax
  401528:	69 c0 5b bd 00 00    	imul   $0xbd5b,%eax,%eax
  40152e:	89 44 24 10          	mov    %eax,0x10(%rsp)
  401532:	8b 44 24 14          	mov    0x14(%rsp),%eax
  401536:	69 c0 29 cc 00 00    	imul   $0xcc29,%eax,%eax
  40153c:	89 44 24 14          	mov    %eax,0x14(%rsp)
  401540:	8b 44 24 10          	mov    0x10(%rsp),%eax
  401544:	69 c0 d4 a2 00 00    	imul   $0xa2d4,%eax,%eax
  40154a:	89 44 24 10          	mov    %eax,0x10(%rsp)
  40154e:	8b 44 24 08          	mov    0x8(%rsp),%eax
  401552:	69 c0 e3 7e 00 00    	imul   $0x7ee3,%eax,%eax
  401558:	89 44 24 08          	mov    %eax,0x8(%rsp)
  40155c:	8b 44 24 0c          	mov    0xc(%rsp),%eax
  401560:	69 c0 e3 e0 00 00    	imul   $0xe0e3,%eax,%eax
  401566:	89 44 24 0c          	mov    %eax,0xc(%rsp)
  40156a:	8b 44 24 10          	mov    0x10(%rsp),%eax
  40156e:	69 c0 0c f4 00 00    	imul   $0xf40c,%eax,%eax
  401574:	89 44 24 10          	mov    %eax,0x10(%rsp)
  401578:	8b 44 24 0c          	mov    0xc(%rsp),%eax
  40157c:	69 c0 63 ec 00 00    	imul   $0xec63,%eax,%eax
  401582:	89 44 24 0c          	mov    %eax,0xc(%rsp)
  401586:	8b 44 24 04          	mov    0x4(%rsp),%eax
  40158a:	69 c0 90 62 00 00    	imul   $0x6290,%eax,%eax
  401590:	89 44 24 04          	mov    %eax,0x4(%rsp)
  401594:	8b 44 24 20          	mov    0x20(%rsp),%eax
  401598:	69 c0 da 82 00 00    	imul   $0x82da,%eax,%eax
  40159e:	89 44 24 20          	mov    %eax,0x20(%rsp)
  4015a2:	8b 44 24 0c          	mov    0xc(%rsp),%eax
  4015a6:	69 c0 8b 74 00 00    	imul   $0x748b,%eax,%eax
  4015ac:	89 44 24 0c          	mov    %eax,0xc(%rsp)
  4015b0:	8b 44 24 14          	mov    0x14(%rsp),%eax
  4015b4:	69 c0 63 02 00 00    	imul   $0x263,%eax,%eax
  4015ba:	89 44 24 14          	mov    %eax,0x14(%rsp)
  4015be:	8b 44 24 14          	mov    0x14(%rsp),%eax
  4015c2:	69 c0 66 ef 00 00    	imul   $0xef66,%eax,%eax
  4015c8:	89 44 24 14          	mov    %eax,0x14(%rsp)
  4015cc:	8b 44 24 14          	mov    0x14(%rsp),%eax
  4015d0:	69 c0 1a 39 00 00    	imul   $0x391a,%eax,%eax
  4015d6:	89 44 24 14          	mov    %eax,0x14(%rsp)
  4015da:	8b 44 24 1c          	mov    0x1c(%rsp),%eax
  4015de:	69 c0 91 8f 00 00    	imul   $0x8f91,%eax,%eax
  4015e4:	89 44 24 1c          	mov    %eax,0x1c(%rsp)
  4015e8:	8b 44 24 04          	mov    0x4(%rsp),%eax
  4015ec:	69 c0 a6 04 00 00    	imul   $0x4a6,%eax,%eax
  4015f2:	89 44 24 04          	mov    %eax,0x4(%rsp)
  4015f6:	8b 44 24 18          	mov    0x18(%rsp),%eax
  4015fa:	69 c0 c9 c0 00 00    	imul   $0xc0c9,%eax,%eax
  401600:	89 44 24 18          	mov    %eax,0x18(%rsp)
  401604:	8b 44 24 10          	mov    0x10(%rsp),%eax
  401608:	69 c0 83 86 00 00    	imul   $0x8683,%eax,%eax
  40160e:	89 44 24 10          	mov    %eax,0x10(%rsp)
  401612:	8b 44 24 24          	mov    0x24(%rsp),%eax
  401616:	69 c0 9d f5 00 00    	imul   $0xf59d,%eax,%eax
  40161c:	89 44 24 24          	mov    %eax,0x24(%rsp)
  401620:	8b 44 24 10          	mov    0x10(%rsp),%eax
  401624:	69 c0 da b1 00 00    	imul   $0xb1da,%eax,%eax
  40162a:	89 44 24 10          	mov    %eax,0x10(%rsp)
  40162e:	8b 44 24 24          	mov    0x24(%rsp),%eax
  401632:	69 c0 a7 43 00 00    	imul   $0x43a7,%eax,%eax
  401638:	89 44 24 24          	mov    %eax,0x24(%rsp)
  40163c:	8b 44 24 0c          	mov    0xc(%rsp),%eax
  401640:	69 c0 b5 1f 00 00    	imul   $0x1fb5,%eax,%eax
  401646:	89 44 24 0c          	mov    %eax,0xc(%rsp)
  40164a:	8b 04 24             	mov    (%rsp),%eax
  40164d:	69 c0 68 60 00 00    	imul   $0x6068,%eax,%eax
  401653:	89 04 24             	mov    %eax,(%rsp)
  401656:	8b 44 24 10          	mov    0x10(%rsp),%eax
  40165a:	69 c0 8d d8 00 00    	imul   $0xd88d,%eax,%eax
  401660:	89 44 24 10          	mov    %eax,0x10(%rsp)
  401664:	8b 44 24 24          	mov    0x24(%rsp),%eax
  401668:	69 c0 c3 64 00 00    	imul   $0x64c3,%eax,%eax
  40166e:	89 44 24 24          	mov    %eax,0x24(%rsp)
  401672:	8b 44 24 08          	mov    0x8(%rsp),%eax
  401676:	69 c0 5c dd 00 00    	imul   $0xdd5c,%eax,%eax
  40167c:	89 44 24 08          	mov    %eax,0x8(%rsp)
  401680:	8b 44 24 24          	mov    0x24(%rsp),%eax
  401684:	69 c0 30 37 00 00    	imul   $0x3730,%eax,%eax
  40168a:	89 44 24 24          	mov    %eax,0x24(%rsp)
  40168e:	8b 44 24 10          	mov    0x10(%rsp),%eax
  401692:	69 c0 05 8a 00 00    	imul   $0x8a05,%eax,%eax
  401698:	89 44 24 10          	mov    %eax,0x10(%rsp)
  40169c:	8b 44 24 14          	mov    0x14(%rsp),%eax
  4016a0:	69 c0 4a 54 00 00    	imul   $0x544a,%eax,%eax
  4016a6:	89 44 24 14          	mov    %eax,0x14(%rsp)
  4016aa:	8b 44 24 14          	mov    0x14(%rsp),%eax
  4016ae:	69 c0 c7 f5 00 00    	imul   $0xf5c7,%eax,%eax
  4016b4:	89 44 24 14          	mov    %eax,0x14(%rsp)
  4016b8:	8b 44 24 10          	mov    0x10(%rsp),%eax
  4016bc:	69 c0 24 a8 00 00    	imul   $0xa824,%eax,%eax
  4016c2:	89 44 24 10          	mov    %eax,0x10(%rsp)
  4016c6:	8b 44 24 04          	mov    0x4(%rsp),%eax
  4016ca:	69 c0 2e ca 00 00    	imul   $0xca2e,%eax,%eax
  4016d0:	89 44 24 04          	mov    %eax,0x4(%rsp)
  4016d4:	8b 44 24 18          	mov    0x18(%rsp),%eax
  4016d8:	69 c0 70 bc 00 00    	imul   $0xbc70,%eax,%eax
  4016de:	89 44 24 18          	mov    %eax,0x18(%rsp)
  4016e2:	8b 44 24 04          	mov    0x4(%rsp),%eax
  4016e6:	69 c0 df f5 00 00    	imul   $0xf5df,%eax,%eax
  4016ec:	89 44 24 04          	mov    %eax,0x4(%rsp)
  4016f0:	8b 44 24 10          	mov    0x10(%rsp),%eax
  4016f4:	69 c0 09 7a 00 00    	imul   $0x7a09,%eax,%eax
  4016fa:	89 44 24 10          	mov    %eax,0x10(%rsp)
  4016fe:	8b 44 24 04          	mov    0x4(%rsp),%eax
  401702:	69 c0 8d 26 00 00    	imul   $0x268d,%eax,%eax
  401708:	89 44 24 04          	mov    %eax,0x4(%rsp)
  40170c:	8b 44 24 10          	mov    0x10(%rsp),%eax
  401710:	69 c0 77 3a 00 00    	imul   $0x3a77,%eax,%eax
  401716:	89 44 24 10          	mov    %eax,0x10(%rsp)
  40171a:	8b 44 24 24          	mov    0x24(%rsp),%eax
  40171e:	69 c0 64 f5 00 00    	imul   $0xf564,%eax,%eax
  401724:	89 44 24 24          	mov    %eax,0x24(%rsp)
  401728:	8b 44 24 0c          	mov    0xc(%rsp),%eax
  40172c:	69 c0 5b 52 00 00    	imul   $0x525b,%eax,%eax
  401732:	89 44 24 0c          	mov    %eax,0xc(%rsp)
  401736:	8b 04 24             	mov    (%rsp),%eax
  401739:	69 c0 d7 5d 00 00    	imul   $0x5dd7,%eax,%eax
  40173f:	89 04 24             	mov    %eax,(%rsp)
  401742:	8b 44 24 14          	mov    0x14(%rsp),%eax
  401746:	69 c0 58 29 00 00    	imul   $0x2958,%eax,%eax
  40174c:	89 44 24 14          	mov    %eax,0x14(%rsp)
  401750:	8b 44 24 1c          	mov    0x1c(%rsp),%eax
  401754:	69 c0 6d 90 00 00    	imul   $0x906d,%eax,%eax
  40175a:	89 44 24 1c          	mov    %eax,0x1c(%rsp)
  40175e:	8b 44 24 10          	mov    0x10(%rsp),%eax
  401762:	69 c0 f2 1a 00 00    	imul   $0x1af2,%eax,%eax
  401768:	89 44 24 10          	mov    %eax,0x10(%rsp)
  40176c:	8b 44 24 0c          	mov    0xc(%rsp),%eax
  401770:	69 c0 1f 87 00 00    	imul   $0x871f,%eax,%eax
  401776:	89 44 24 0c          	mov    %eax,0xc(%rsp)
  40177a:	8b 44 24 14          	mov    0x14(%rsp),%eax
  40177e:	69 c0 92 dd 00 00    	imul   $0xdd92,%eax,%eax
  401784:	89 44 24 14          	mov    %eax,0x14(%rsp)
  401788:	8b 44 24 08          	mov    0x8(%rsp),%eax
  40178c:	69 c0 18 53 00 00    	imul   $0x5318,%eax,%eax
  401792:	89 44 24 08          	mov    %eax,0x8(%rsp)
  401796:	8b 44 24 04          	mov    0x4(%rsp),%eax
  40179a:	69 c0 55 77 00 00    	imul   $0x7755,%eax,%eax
  4017a0:	89 44 24 04          	mov    %eax,0x4(%rsp)
  4017a4:	8b 44 24 24          	mov    0x24(%rsp),%eax
  4017a8:	69 c0 a4 ee 00 00    	imul   $0xeea4,%eax,%eax
  4017ae:	89 44 24 24          	mov    %eax,0x24(%rsp)
  4017b2:	8b 44 24 04          	mov    0x4(%rsp),%eax
  4017b6:	69 c0 f9 6d 00 00    	imul   $0x6df9,%eax,%eax
  4017bc:	89 44 24 04          	mov    %eax,0x4(%rsp)
  4017c0:	8b 44 24 18          	mov    0x18(%rsp),%eax
  4017c4:	69 c0 d2 e5 00 00    	imul   $0xe5d2,%eax,%eax
  4017ca:	89 44 24 18          	mov    %eax,0x18(%rsp)
  4017ce:	8b 44 24 04          	mov    0x4(%rsp),%eax
  4017d2:	69 c0 3d 8c 00 00    	imul   $0x8c3d,%eax,%eax
  4017d8:	89 44 24 04          	mov    %eax,0x4(%rsp)
  4017dc:	8b 44 24 0c          	mov    0xc(%rsp),%eax
  4017e0:	69 c0 b3 a5 00 00    	imul   $0xa5b3,%eax,%eax
  4017e6:	89 44 24 0c          	mov    %eax,0xc(%rsp)
  4017ea:	8b 44 24 08          	mov    0x8(%rsp),%eax
  4017ee:	69 c0 a1 52 00 00    	imul   $0x52a1,%eax,%eax
  4017f4:	89 44 24 08          	mov    %eax,0x8(%rsp)
  4017f8:	8b 44 24 10          	mov    0x10(%rsp),%eax
  4017fc:	69 c0 94 61 00 00    	imul   $0x6194,%eax,%eax
  401802:	89 44 24 10          	mov    %eax,0x10(%rsp)
  401806:	8b 44 24 20          	mov    0x20(%rsp),%eax
  40180a:	69 c0 09 69 00 00    	imul   $0x6909,%eax,%eax
  401810:	89 44 24 20          	mov    %eax,0x20(%rsp)
  401814:	8b 44 24 08          	mov    0x8(%rsp),%eax
  401818:	69 c0 1b 5c 00 00    	imul   $0x5c1b,%eax,%eax
  40181e:	89 44 24 08          	mov    %eax,0x8(%rsp)
  401822:	8b 44 24 08          	mov    0x8(%rsp),%eax
  401826:	69 c0 9f fa 00 00    	imul   $0xfa9f,%eax,%eax
  40182c:	89 44 24 08          	mov    %eax,0x8(%rsp)
  401830:	8b 44 24 10          	mov    0x10(%rsp),%eax
  401834:	69 c0 eb f2 00 00    	imul   $0xf2eb,%eax,%eax
  40183a:	89 44 24 10          	mov    %eax,0x10(%rsp)
  40183e:	8b 44 24 10          	mov    0x10(%rsp),%eax
  401842:	69 c0 fa 06 00 00    	imul   $0x6fa,%eax,%eax
  401848:	89 44 24 10          	mov    %eax,0x10(%rsp)
  40184c:	8b 44 24 20          	mov    0x20(%rsp),%eax
  401850:	69 c0 cf 84 00 00    	imul   $0x84cf,%eax,%eax
  401856:	89 44 24 20          	mov    %eax,0x20(%rsp)
  40185a:	8b 44 24 1c          	mov    0x1c(%rsp),%eax
  40185e:	69 c0 f1 f6 00 00    	imul   $0xf6f1,%eax,%eax
  401864:	89 44 24 1c          	mov    %eax,0x1c(%rsp)
  401868:	8b 44 24 20          	mov    0x20(%rsp),%eax
  40186c:	69 c0 43 6a 00 00    	imul   $0x6a43,%eax,%eax
  401872:	89 44 24 20          	mov    %eax,0x20(%rsp)
  401876:	8b 44 24 1c          	mov    0x1c(%rsp),%eax
  40187a:	69 c0 2e f5 00 00    	imul   $0xf52e,%eax,%eax
  401880:	89 44 24 1c          	mov    %eax,0x1c(%rsp)
  401884:	8b 44 24 24          	mov    0x24(%rsp),%eax
  401888:	69 c0 0b a2 00 00    	imul   $0xa20b,%eax,%eax
  40188e:	89 44 24 24          	mov    %eax,0x24(%rsp)
  401892:	8b 44 24 0c          	mov    0xc(%rsp),%eax
  401896:	69 c0 6a 3d 00 00    	imul   $0x3d6a,%eax,%eax
  40189c:	89 44 24 0c          	mov    %eax,0xc(%rsp)
  4018a0:	8b 44 24 20          	mov    0x20(%rsp),%eax
  4018a4:	69 c0 2a 4b 00 00    	imul   $0x4b2a,%eax,%eax
  4018aa:	89 44 24 20          	mov    %eax,0x20(%rsp)
  4018ae:	8b 44 24 0c          	mov    0xc(%rsp),%eax
  4018b2:	69 c0 3c 94 00 00    	imul   $0x943c,%eax,%eax
  4018b8:	89 44 24 0c          	mov    %eax,0xc(%rsp)
  4018bc:	8b 04 24             	mov    (%rsp),%eax
  4018bf:	69 c0 5d 90 00 00    	imul   $0x905d,%eax,%eax
  4018c5:	89 04 24             	mov    %eax,(%rsp)
  4018c8:	8b 44 24 14          	mov    0x14(%rsp),%eax
  4018cc:	69 c0 f5 8b 00 00    	imul   $0x8bf5,%eax,%eax
  4018d2:	89 44 24 14          	mov    %eax,0x14(%rsp)
  4018d6:	ba 00 00 00 00       	mov    $0x0,%edx
  4018db:	b8 00 00 00 00       	mov    $0x0,%eax
  4018e0:	eb 0a                	jmp    4018ec <scramble+0x55d>
  4018e2:	89 d1                	mov    %edx,%ecx
  4018e4:	8b 0c 8c             	mov    (%rsp,%rcx,4),%ecx
  4018e7:	01 c8                	add    %ecx,%eax
  4018e9:	83 c2 01             	add    $0x1,%edx
  4018ec:	83 fa 09             	cmp    $0x9,%edx
  4018ef:	76 f1                	jbe    4018e2 <scramble+0x553>
  4018f1:	48 8b 74 24 28       	mov    0x28(%rsp),%rsi
  4018f6:	64 48 33 34 25 28 00 	xor    %fs:0x28,%rsi
  4018fd:	00 00 
  4018ff:	74 05                	je     401906 <scramble+0x577>
  401901:	e8 ea f3 ff ff       	callq  400cf0 <__stack_chk_fail@plt>
  401906:	48 83 c4 38          	add    $0x38,%rsp
  40190a:	c3                   	retq   

000000000040190b <getbuf>:
  40190b:	48 83 ec 28          	sub    $0x28,%rsp
  40190f:	48 89 e7             	mov    %rsp,%rdi
  401912:	e8 9d 03 00 00       	callq  401cb4 <Gets>
  401917:	b8 01 00 00 00       	mov    $0x1,%eax
  40191c:	48 83 c4 28          	add    $0x28,%rsp
  401920:	c3                   	retq   

0000000000401921 <touch1>:
  401921:	48 83 ec 08          	sub    $0x8,%rsp
  401925:	c7 05 ed 3b 20 00 01 	movl   $0x1,0x203bed(%rip)        # 60551c <vlevel>
  40192c:	00 00 00 
  40192f:	bf 92 34 40 00       	mov    $0x403492,%edi
  401934:	e8 97 f3 ff ff       	callq  400cd0 <puts@plt>
  401939:	bf 01 00 00 00       	mov    $0x1,%edi
  40193e:	e8 b6 05 00 00       	callq  401ef9 <validate>
  401943:	bf 00 00 00 00       	mov    $0x0,%edi
  401948:	e8 03 f5 ff ff       	callq  400e50 <exit@plt>

000000000040194d <touch2>:
  40194d:	48 83 ec 08          	sub    $0x8,%rsp
  401951:	89 fa                	mov    %edi,%edx
  401953:	c7 05 bf 3b 20 00 02 	movl   $0x2,0x203bbf(%rip)        # 60551c <vlevel>
  40195a:	00 00 00 
  40195d:	39 3d c1 3b 20 00    	cmp    %edi,0x203bc1(%rip)        # 605524 <cookie>
  401963:	75 20                	jne    401985 <touch2+0x38>
  401965:	be b8 34 40 00       	mov    $0x4034b8,%esi
  40196a:	bf 01 00 00 00       	mov    $0x1,%edi
  40196f:	b8 00 00 00 00       	mov    $0x0,%eax
  401974:	e8 87 f4 ff ff       	callq  400e00 <__printf_chk@plt>
  401979:	bf 02 00 00 00       	mov    $0x2,%edi
  40197e:	e8 76 05 00 00       	callq  401ef9 <validate>
  401983:	eb 1e                	jmp    4019a3 <touch2+0x56>
  401985:	be e0 34 40 00       	mov    $0x4034e0,%esi
  40198a:	bf 01 00 00 00       	mov    $0x1,%edi
  40198f:	b8 00 00 00 00       	mov    $0x0,%eax
  401994:	e8 67 f4 ff ff       	callq  400e00 <__printf_chk@plt>
  401999:	bf 02 00 00 00       	mov    $0x2,%edi
  40199e:	e8 18 06 00 00       	callq  401fbb <fail>
  4019a3:	bf 00 00 00 00       	mov    $0x0,%edi
  4019a8:	e8 a3 f4 ff ff       	callq  400e50 <exit@plt>

00000000004019ad <hexmatch>:
  4019ad:	41 54                	push   %r12
  4019af:	55                   	push   %rbp
  4019b0:	53                   	push   %rbx
  4019b1:	48 83 c4 80          	add    $0xffffffffffffff80,%rsp
  4019b5:	89 fd                	mov    %edi,%ebp
  4019b7:	48 89 f3             	mov    %rsi,%rbx
  4019ba:	64 48 8b 04 25 28 00 	mov    %fs:0x28,%rax
  4019c1:	00 00 
  4019c3:	48 89 44 24 78       	mov    %rax,0x78(%rsp)
  4019c8:	31 c0                	xor    %eax,%eax
  4019ca:	e8 f1 f3 ff ff       	callq  400dc0 <random@plt>
  4019cf:	48 89 c1             	mov    %rax,%rcx
  4019d2:	48 ba 0b d7 a3 70 3d 	movabs $0xa3d70a3d70a3d70b,%rdx
  4019d9:	0a d7 a3 
  4019dc:	48 f7 ea             	imul   %rdx
  4019df:	48 01 ca             	add    %rcx,%rdx
  4019e2:	48 c1 fa 06          	sar    $0x6,%rdx
  4019e6:	48 89 c8             	mov    %rcx,%rax
  4019e9:	48 c1 f8 3f          	sar    $0x3f,%rax
  4019ed:	48 29 c2             	sub    %rax,%rdx
  4019f0:	48 8d 04 92          	lea    (%rdx,%rdx,4),%rax
  4019f4:	48 8d 14 80          	lea    (%rax,%rax,4),%rdx
  4019f8:	48 8d 04 95 00 00 00 	lea    0x0(,%rdx,4),%rax
  4019ff:	00 
  401a00:	48 29 c1             	sub    %rax,%rcx
  401a03:	4c 8d 24 0c          	lea    (%rsp,%rcx,1),%r12
  401a07:	41 89 e8             	mov    %ebp,%r8d
  401a0a:	b9 af 34 40 00       	mov    $0x4034af,%ecx
  401a0f:	48 c7 c2 ff ff ff ff 	mov    $0xffffffffffffffff,%rdx
  401a16:	be 01 00 00 00       	mov    $0x1,%esi
  401a1b:	4c 89 e7             	mov    %r12,%rdi
  401a1e:	b8 00 00 00 00       	mov    $0x0,%eax
  401a23:	e8 58 f4 ff ff       	callq  400e80 <__sprintf_chk@plt>
  401a28:	ba 09 00 00 00       	mov    $0x9,%edx
  401a2d:	4c 89 e6             	mov    %r12,%rsi
  401a30:	48 89 df             	mov    %rbx,%rdi
  401a33:	e8 78 f2 ff ff       	callq  400cb0 <strncmp@plt>
  401a38:	85 c0                	test   %eax,%eax
  401a3a:	0f 94 c0             	sete   %al
  401a3d:	48 8b 5c 24 78       	mov    0x78(%rsp),%rbx
  401a42:	64 48 33 1c 25 28 00 	xor    %fs:0x28,%rbx
  401a49:	00 00 
  401a4b:	74 05                	je     401a52 <hexmatch+0xa5>
  401a4d:	e8 9e f2 ff ff       	callq  400cf0 <__stack_chk_fail@plt>
  401a52:	0f b6 c0             	movzbl %al,%eax
  401a55:	48 83 ec 80          	sub    $0xffffffffffffff80,%rsp
  401a59:	5b                   	pop    %rbx
  401a5a:	5d                   	pop    %rbp
  401a5b:	41 5c                	pop    %r12
  401a5d:	c3                   	retq   

0000000000401a5e <touch3>:
  401a5e:	53                   	push   %rbx
  401a5f:	48 89 fb             	mov    %rdi,%rbx
  401a62:	c7 05 b0 3a 20 00 03 	movl   $0x3,0x203ab0(%rip)        # 60551c <vlevel>
  401a69:	00 00 00 
  401a6c:	48 89 fe             	mov    %rdi,%rsi
  401a6f:	8b 3d af 3a 20 00    	mov    0x203aaf(%rip),%edi        # 605524 <cookie>
  401a75:	e8 33 ff ff ff       	callq  4019ad <hexmatch>
  401a7a:	85 c0                	test   %eax,%eax
  401a7c:	74 23                	je     401aa1 <touch3+0x43>
  401a7e:	48 89 da             	mov    %rbx,%rdx
  401a81:	be 08 35 40 00       	mov    $0x403508,%esi
  401a86:	bf 01 00 00 00       	mov    $0x1,%edi
  401a8b:	b8 00 00 00 00       	mov    $0x0,%eax
  401a90:	e8 6b f3 ff ff       	callq  400e00 <__printf_chk@plt>
  401a95:	bf 03 00 00 00       	mov    $0x3,%edi
  401a9a:	e8 5a 04 00 00       	callq  401ef9 <validate>
  401a9f:	eb 21                	jmp    401ac2 <touch3+0x64>
  401aa1:	48 89 da             	mov    %rbx,%rdx
  401aa4:	be 30 35 40 00       	mov    $0x403530,%esi
  401aa9:	bf 01 00 00 00       	mov    $0x1,%edi
  401aae:	b8 00 00 00 00       	mov    $0x0,%eax
  401ab3:	e8 48 f3 ff ff       	callq  400e00 <__printf_chk@plt>
  401ab8:	bf 03 00 00 00       	mov    $0x3,%edi
  401abd:	e8 f9 04 00 00       	callq  401fbb <fail>
  401ac2:	bf 00 00 00 00       	mov    $0x0,%edi
  401ac7:	e8 84 f3 ff ff       	callq  400e50 <exit@plt>

0000000000401acc <test>:
  401acc:	48 83 ec 08          	sub    $0x8,%rsp
  401ad0:	b8 00 00 00 00       	mov    $0x0,%eax
  401ad5:	e8 31 fe ff ff       	callq  40190b <getbuf>
  401ada:	89 c2                	mov    %eax,%edx
  401adc:	be 58 35 40 00       	mov    $0x403558,%esi
  401ae1:	bf 01 00 00 00       	mov    $0x1,%edi
  401ae6:	b8 00 00 00 00       	mov    $0x0,%eax
  401aeb:	e8 10 f3 ff ff       	callq  400e00 <__printf_chk@plt>
  401af0:	48 83 c4 08          	add    $0x8,%rsp
  401af4:	c3                   	retq   

0000000000401af5 <start_farm>:
  401af5:	b8 01 00 00 00       	mov    $0x1,%eax
  401afa:	c3                   	retq   

0000000000401afb <addval_297>:
  401afb:	8d 87 58 90 90 c3    	lea    -0x3c6f6fa8(%rdi),%eax
  401b01:	c3                   	retq   

0000000000401b02 <getval_205>:
  401b02:	b8 12 1e 58 92       	mov    $0x92581e12,%eax
  401b07:	c3                   	retq   

0000000000401b08 <getval_367>:
  401b08:	b8 58 58 91 90       	mov    $0x90915858,%eax
  401b0d:	c3                   	retq   

0000000000401b0e <getval_100>:
  401b0e:	b8 ef 48 89 c7       	mov    $0xc78948ef,%eax
			movq %rax,%rdi
  401b13:	c3                   	retq   

0000000000401b14 <getval_189>:
  401b14:	b8 48 89 c7 92       	mov    $0x92c78948,%eax
  401b19:	c3                   	retq   

0000000000401b1a <addval_389>:
  401b1a:	8d 87 48 89 c7 c3    	lea    -0x3c3876b8(%rdi),%eax
			movl %eax,%edi retq
  401b20:	c3                   	retq   

0000000000401b21 <getval_130>:
  401b21:	b8 48 99 c7 c3       	mov    $0xc3c79948,%eax
  401b26:	c3                   	retq   

0000000000401b27 <getval_494>:
  401b27:	b8 58 90 90 c3       	mov    $0xc3909058,%eax
			pop %rax nop nop retq
  401b2c:	c3                   	retq   

0000000000401b2d <mid_farm>:
  401b2d:	b8 01 00 00 00       	mov    $0x1,%eax
  401b32:	c3                   	retq   

0000000000401b33 <add_xy>:
  401b33:	48 8d 04 37          	lea    (%rdi,%rsi,1),%rax
  401b37:	c3                   	retq   

0000000000401b38 <addval_296>:
  401b38:	8d 87 89 d1 20 c0    	lea    -0x3fdf2e77(%rdi),%eax
  401b3e:	c3                   	retq   

0000000000401b3f <addval_469>:
  401b3f:	8d 87 89 c2 92 c3    	lea    -0x3c6d3d77(%rdi),%eax
  401b45:	c3                   	retq   

0000000000401b46 <getval_221>:
  401b46:	b8 09 c2 90 c3       	mov    $0xc390c209,%eax
  401b4b:	c3                   	retq   

0000000000401b4c <setval_402>:
  401b4c:	c7 07 89 ce 18 c9    	movl   $0xc918ce89,(%rdi)
  401b52:	c3                   	retq   

0000000000401b53 <addval_372>:
  401b53:	8d 87 09 d1 90 c3    	lea    -0x3c6f2ef7(%rdi),%eax
  401b59:	c3                   	retq   

0000000000401b5a <addval_285>:
  401b5a:	8d 87 e8 06 89 c2    	lea    -0x3d76f918(%rdi),%eax
  401b60:	c3                   	retq   

0000000000401b61 <setval_237>:
  401b61:	c7 07 c9 c2 90 c3    	movl   $0xc390c2c9,(%rdi)
  401b67:	c3                   	retq   

0000000000401b68 <setval_374>:
  401b68:	c7 07 89 ce 00 c0    	movl   $0xc000ce89,(%rdi)
  401b6e:	c3                   	retq   

0000000000401b6f <addval_215>:
  401b6f:	8d 87 8b c2 08 c0    	lea    -0x3ff73d75(%rdi),%eax
  401b75:	c3                   	retq   

0000000000401b76 <getval_288>:
  401b76:	b8 8b d1 84 c0       	mov    $0xc084d18b,%eax
  401b7b:	c3                   	retq   

0000000000401b7c <getval_388>:
  401b7c:	b8 48 89 e0 c7       	mov    $0xc7e08948,%eax
  401b81:	c3                   	retq   

0000000000401b82 <setval_228>:
  401b82:	c7 07 48 89 e0 c7    	movl   $0xc7e08948,(%rdi)
  401b88:	c3                   	retq   

0000000000401b89 <getval_365>:
  401b89:	b8 89 ce 28 c0       	mov    $0xc028ce89,%eax
  401b8e:	c3                   	retq   

0000000000401b8f <getval_384>:
  401b8f:	b8 c9 ce 08 db       	mov    $0xdb08cec9,%eax
  401b94:	c3                   	retq   

0000000000401b95 <getval_183>:
  401b95:	b8 89 c2 c1 2d       	mov    $0x2dc1c289,%eax
  401b9a:	c3                   	retq   

0000000000401b9b <setval_303>:
  401b9b:	c7 07 67 89 d1 94    	movl   $0x94d18967,(%rdi)
  401ba1:	c3                   	retq   

0000000000401ba2 <setval_127>:
  401ba2:	c7 07 88 d1 90 c3    	movl   $0xc390d188,(%rdi)
  401ba8:	c3                   	retq   

0000000000401ba9 <setval_111>:
  401ba9:	c7 07 89 d1 90 c3    	movl   $0xc390d189,(%rdi)
  401baf:	c3                   	retq   

0000000000401bb0 <setval_287>:
  401bb0:	c7 07 89 ce 28 d2    	movl   $0xd228ce89,(%rdi)
  401bb6:	c3                   	retq   

0000000000401bb7 <setval_489>:
  401bb7:	c7 07 89 ce 38 d2    	movl   $0xd238ce89,(%rdi)
  401bbd:	c3                   	retq   

0000000000401bbe <getval_353>:
  401bbe:	b8 99 d1 20 db       	mov    $0xdb20d199,%eax
  401bc3:	c3                   	retq   

0000000000401bc4 <setval_378>:
  401bc4:	c7 07 48 89 e0 c3    	movl   $0xc3e08948,(%rdi)
  401bca:	c3                   	retq   

0000000000401bcb <setval_439>:
  401bcb:	c7 07 af 48 88 e0    	movl   $0xe08848af,(%rdi)
  401bd1:	c3                   	retq   

0000000000401bd2 <addval_170>:
  401bd2:	8d 87 89 d1 30 db    	lea    -0x24cf2e77(%rdi),%eax
  401bd8:	c3                   	retq   

0000000000401bd9 <setval_464>:
  401bd9:	c7 07 48 89 e0 91    	movl   $0x91e08948,(%rdi)
  401bdf:	c3                   	retq   

0000000000401be0 <setval_227>:
  401be0:	c7 07 89 c2 90 90    	movl   $0x9090c289,(%rdi)
  401be6:	c3                   	retq   

0000000000401be7 <addval_179>:
  401be7:	8d 87 5b 40 89 e0    	lea    -0x1f76bfa5(%rdi),%eax
  401bed:	c3                   	retq   

0000000000401bee <getval_243>:
  401bee:	b8 48 89 e0 c7       	mov    $0xc7e08948,%eax
  401bf3:	c3                   	retq   

0000000000401bf4 <addval_305>:
  401bf4:	8d 87 48 89 e0 90    	lea    -0x6f1f76b8(%rdi),%eax
  401bfa:	c3                   	retq   

0000000000401bfb <getval_342>:
  401bfb:	b8 c2 89 ce c1       	mov    $0xc1ce89c2,%eax
  401c00:	c3                   	retq   

0000000000401c01 <setval_432>:
  401c01:	c7 07 89 ce 20 c9    	movl   $0xc920ce89,(%rdi)
  401c07:	c3                   	retq   

0000000000401c08 <getval_171>:
  401c08:	b8 8b c2 c3 09       	mov    $0x9c3c28b,%eax
  401c0d:	c3                   	retq   

0000000000401c0e <end_farm>:
  401c0e:	b8 01 00 00 00       	mov    $0x1,%eax
  401c13:	c3                   	retq   

0000000000401c14 <save_char>:
  401c14:	8b 05 2a 45 20 00    	mov    0x20452a(%rip),%eax        # 606144 <gets_cnt>
  401c1a:	3d ff 03 00 00       	cmp    $0x3ff,%eax
  401c1f:	7f 49                	jg     401c6a <save_char+0x56>
  401c21:	8d 14 40             	lea    (%rax,%rax,2),%edx
  401c24:	89 f9                	mov    %edi,%ecx
  401c26:	c0 e9 04             	shr    $0x4,%cl
  401c29:	83 e1 0f             	and    $0xf,%ecx
  401c2c:	0f b6 b1 80 38 40 00 	movzbl 0x403880(%rcx),%esi
  401c33:	48 63 ca             	movslq %edx,%rcx
  401c36:	40 88 b1 40 55 60 00 	mov    %sil,0x605540(%rcx)
  401c3d:	8d 4a 01             	lea    0x1(%rdx),%ecx
  401c40:	83 e7 0f             	and    $0xf,%edi
  401c43:	0f b6 b7 80 38 40 00 	movzbl 0x403880(%rdi),%esi
  401c4a:	48 63 c9             	movslq %ecx,%rcx
  401c4d:	40 88 b1 40 55 60 00 	mov    %sil,0x605540(%rcx)
  401c54:	83 c2 02             	add    $0x2,%edx
  401c57:	48 63 d2             	movslq %edx,%rdx
  401c5a:	c6 82 40 55 60 00 20 	movb   $0x20,0x605540(%rdx)
  401c61:	83 c0 01             	add    $0x1,%eax
  401c64:	89 05 da 44 20 00    	mov    %eax,0x2044da(%rip)        # 606144 <gets_cnt>
  401c6a:	f3 c3                	repz retq 

0000000000401c6c <save_term>:
  401c6c:	8b 05 d2 44 20 00    	mov    0x2044d2(%rip),%eax        # 606144 <gets_cnt>
  401c72:	8d 04 40             	lea    (%rax,%rax,2),%eax
  401c75:	48 98                	cltq   
  401c77:	c6 80 40 55 60 00 00 	movb   $0x0,0x605540(%rax)
  401c7e:	c3                   	retq   

0000000000401c7f <check_fail>:
  401c7f:	48 83 ec 08          	sub    $0x8,%rsp
  401c83:	0f be 15 be 44 20 00 	movsbl 0x2044be(%rip),%edx        # 606148 <target_prefix>
  401c8a:	41 b8 40 55 60 00    	mov    $0x605540,%r8d
  401c90:	8b 0d 82 38 20 00    	mov    0x203882(%rip),%ecx        # 605518 <check_level>
  401c96:	be 7b 35 40 00       	mov    $0x40357b,%esi
  401c9b:	bf 01 00 00 00       	mov    $0x1,%edi
  401ca0:	b8 00 00 00 00       	mov    $0x0,%eax
  401ca5:	e8 56 f1 ff ff       	callq  400e00 <__printf_chk@plt>
  401caa:	bf 01 00 00 00       	mov    $0x1,%edi
  401caf:	e8 9c f1 ff ff       	callq  400e50 <exit@plt>

0000000000401cb4 <Gets>:
  401cb4:	41 54                	push   %r12
  401cb6:	55                   	push   %rbp
  401cb7:	53                   	push   %rbx
  401cb8:	49 89 fc             	mov    %rdi,%r12
  401cbb:	c7 05 7f 44 20 00 00 	movl   $0x0,0x20447f(%rip)        # 606144 <gets_cnt>
  401cc2:	00 00 00 
  401cc5:	48 89 fb             	mov    %rdi,%rbx
  401cc8:	eb 11                	jmp    401cdb <Gets+0x27>
  401cca:	48 8d 6b 01          	lea    0x1(%rbx),%rbp
  401cce:	88 03                	mov    %al,(%rbx)
  401cd0:	0f b6 f8             	movzbl %al,%edi
  401cd3:	e8 3c ff ff ff       	callq  401c14 <save_char>
  401cd8:	48 89 eb             	mov    %rbp,%rbx
  401cdb:	48 8b 3d 2e 38 20 00 	mov    0x20382e(%rip),%rdi        # 605510 <infile>
  401ce2:	e8 e9 f0 ff ff       	callq  400dd0 <_IO_getc@plt>
  401ce7:	83 f8 ff             	cmp    $0xffffffff,%eax
  401cea:	74 05                	je     401cf1 <Gets+0x3d>
  401cec:	83 f8 0a             	cmp    $0xa,%eax
  401cef:	75 d9                	jne    401cca <Gets+0x16>
  401cf1:	c6 03 00             	movb   $0x0,(%rbx)
  401cf4:	b8 00 00 00 00       	mov    $0x0,%eax
  401cf9:	e8 6e ff ff ff       	callq  401c6c <save_term>
  401cfe:	4c 89 e0             	mov    %r12,%rax
  401d01:	5b                   	pop    %rbx
  401d02:	5d                   	pop    %rbp
  401d03:	41 5c                	pop    %r12
  401d05:	c3                   	retq   

0000000000401d06 <notify_server>:
  401d06:	53                   	push   %rbx
  401d07:	48 81 ec 10 40 00 00 	sub    $0x4010,%rsp
  401d0e:	64 48 8b 04 25 28 00 	mov    %fs:0x28,%rax
  401d15:	00 00 
  401d17:	48 89 84 24 08 40 00 	mov    %rax,0x4008(%rsp)
  401d1e:	00 
  401d1f:	31 c0                	xor    %eax,%eax
  401d21:	83 3d 00 38 20 00 00 	cmpl   $0x0,0x203800(%rip)        # 605528 <is_checker>
  401d28:	0f 85 aa 01 00 00    	jne    401ed8 <notify_server+0x1d2>
  401d2e:	89 fb                	mov    %edi,%ebx
  401d30:	8b 05 0e 44 20 00    	mov    0x20440e(%rip),%eax        # 606144 <gets_cnt>
  401d36:	83 c0 64             	add    $0x64,%eax
  401d39:	3d 00 20 00 00       	cmp    $0x2000,%eax
  401d3e:	7e 1e                	jle    401d5e <notify_server+0x58>
  401d40:	be b0 36 40 00       	mov    $0x4036b0,%esi
  401d45:	bf 01 00 00 00       	mov    $0x1,%edi
  401d4a:	b8 00 00 00 00       	mov    $0x0,%eax
  401d4f:	e8 ac f0 ff ff       	callq  400e00 <__printf_chk@plt>
  401d54:	bf 01 00 00 00       	mov    $0x1,%edi
  401d59:	e8 f2 f0 ff ff       	callq  400e50 <exit@plt>
  401d5e:	0f be 05 e3 43 20 00 	movsbl 0x2043e3(%rip),%eax        # 606148 <target_prefix>
  401d65:	83 3d 3c 37 20 00 00 	cmpl   $0x0,0x20373c(%rip)        # 6054a8 <notify>
  401d6c:	74 08                	je     401d76 <notify_server+0x70>
  401d6e:	8b 15 ac 37 20 00    	mov    0x2037ac(%rip),%edx        # 605520 <authkey>
  401d74:	eb 05                	jmp    401d7b <notify_server+0x75>
  401d76:	ba ff ff ff ff       	mov    $0xffffffff,%edx
  401d7b:	85 db                	test   %ebx,%ebx
  401d7d:	74 08                	je     401d87 <notify_server+0x81>
  401d7f:	41 b9 91 35 40 00    	mov    $0x403591,%r9d
  401d85:	eb 06                	jmp    401d8d <notify_server+0x87>
  401d87:	41 b9 96 35 40 00    	mov    $0x403596,%r9d
  401d8d:	68 40 55 60 00       	pushq  $0x605540
  401d92:	56                   	push   %rsi
  401d93:	50                   	push   %rax
  401d94:	52                   	push   %rdx
  401d95:	44 8b 05 cc 33 20 00 	mov    0x2033cc(%rip),%r8d        # 605168 <target_id>
  401d9c:	b9 9b 35 40 00       	mov    $0x40359b,%ecx
  401da1:	ba 00 20 00 00       	mov    $0x2000,%edx
  401da6:	be 01 00 00 00       	mov    $0x1,%esi
  401dab:	48 8d 7c 24 20       	lea    0x20(%rsp),%rdi
  401db0:	b8 00 00 00 00       	mov    $0x0,%eax
  401db5:	e8 c6 f0 ff ff       	callq  400e80 <__sprintf_chk@plt>
  401dba:	48 83 c4 20          	add    $0x20,%rsp
  401dbe:	83 3d e3 36 20 00 00 	cmpl   $0x0,0x2036e3(%rip)        # 6054a8 <notify>
  401dc5:	0f 84 81 00 00 00    	je     401e4c <notify_server+0x146>
  401dcb:	85 db                	test   %ebx,%ebx
  401dcd:	74 6e                	je     401e3d <notify_server+0x137>
  401dcf:	4c 8d 8c 24 00 20 00 	lea    0x2000(%rsp),%r9
  401dd6:	00 
  401dd7:	41 b8 00 00 00 00    	mov    $0x0,%r8d
  401ddd:	48 89 e1             	mov    %rsp,%rcx
  401de0:	48 8b 15 89 33 20 00 	mov    0x203389(%rip),%rdx        # 605170 <lab>
  401de7:	48 8b 35 8a 33 20 00 	mov    0x20338a(%rip),%rsi        # 605178 <course>
  401dee:	48 8b 3d 6b 33 20 00 	mov    0x20336b(%rip),%rdi        # 605160 <user_id>
  401df5:	e8 ef 10 00 00       	callq  402ee9 <driver_post>
  401dfa:	85 c0                	test   %eax,%eax
  401dfc:	79 26                	jns    401e24 <notify_server+0x11e>
  401dfe:	48 8d 94 24 00 20 00 	lea    0x2000(%rsp),%rdx
  401e05:	00 
  401e06:	be b7 35 40 00       	mov    $0x4035b7,%esi
  401e0b:	bf 01 00 00 00       	mov    $0x1,%edi
  401e10:	b8 00 00 00 00       	mov    $0x0,%eax
  401e15:	e8 e6 ef ff ff       	callq  400e00 <__printf_chk@plt>
  401e1a:	bf 01 00 00 00       	mov    $0x1,%edi
  401e1f:	e8 2c f0 ff ff       	callq  400e50 <exit@plt>
  401e24:	bf e0 36 40 00       	mov    $0x4036e0,%edi
  401e29:	e8 a2 ee ff ff       	callq  400cd0 <puts@plt>
  401e2e:	bf c3 35 40 00       	mov    $0x4035c3,%edi
  401e33:	e8 98 ee ff ff       	callq  400cd0 <puts@plt>
  401e38:	e9 9b 00 00 00       	jmpq   401ed8 <notify_server+0x1d2>
  401e3d:	bf cd 35 40 00       	mov    $0x4035cd,%edi
  401e42:	e8 89 ee ff ff       	callq  400cd0 <puts@plt>
  401e47:	e9 8c 00 00 00       	jmpq   401ed8 <notify_server+0x1d2>
  401e4c:	85 db                	test   %ebx,%ebx
  401e4e:	74 07                	je     401e57 <notify_server+0x151>
  401e50:	ba 91 35 40 00       	mov    $0x403591,%edx
  401e55:	eb 05                	jmp    401e5c <notify_server+0x156>
  401e57:	ba 96 35 40 00       	mov    $0x403596,%edx
  401e5c:	be 18 37 40 00       	mov    $0x403718,%esi
  401e61:	bf 01 00 00 00       	mov    $0x1,%edi
  401e66:	b8 00 00 00 00       	mov    $0x0,%eax
  401e6b:	e8 90 ef ff ff       	callq  400e00 <__printf_chk@plt>
  401e70:	48 8b 15 e9 32 20 00 	mov    0x2032e9(%rip),%rdx        # 605160 <user_id>
  401e77:	be d4 35 40 00       	mov    $0x4035d4,%esi
  401e7c:	bf 01 00 00 00       	mov    $0x1,%edi
  401e81:	b8 00 00 00 00       	mov    $0x0,%eax
  401e86:	e8 75 ef ff ff       	callq  400e00 <__printf_chk@plt>
  401e8b:	48 8b 15 e6 32 20 00 	mov    0x2032e6(%rip),%rdx        # 605178 <course>
  401e92:	be e1 35 40 00       	mov    $0x4035e1,%esi
  401e97:	bf 01 00 00 00       	mov    $0x1,%edi
  401e9c:	b8 00 00 00 00       	mov    $0x0,%eax
  401ea1:	e8 5a ef ff ff       	callq  400e00 <__printf_chk@plt>
  401ea6:	48 8b 15 c3 32 20 00 	mov    0x2032c3(%rip),%rdx        # 605170 <lab>
  401ead:	be ed 35 40 00       	mov    $0x4035ed,%esi
  401eb2:	bf 01 00 00 00       	mov    $0x1,%edi
  401eb7:	b8 00 00 00 00       	mov    $0x0,%eax
  401ebc:	e8 3f ef ff ff       	callq  400e00 <__printf_chk@plt>
  401ec1:	48 89 e2             	mov    %rsp,%rdx
  401ec4:	be f6 35 40 00       	mov    $0x4035f6,%esi
  401ec9:	bf 01 00 00 00       	mov    $0x1,%edi
  401ece:	b8 00 00 00 00       	mov    $0x0,%eax
  401ed3:	e8 28 ef ff ff       	callq  400e00 <__printf_chk@plt>
  401ed8:	48 8b 84 24 08 40 00 	mov    0x4008(%rsp),%rax
  401edf:	00 
  401ee0:	64 48 33 04 25 28 00 	xor    %fs:0x28,%rax
  401ee7:	00 00 
  401ee9:	74 05                	je     401ef0 <notify_server+0x1ea>
  401eeb:	e8 00 ee ff ff       	callq  400cf0 <__stack_chk_fail@plt>
  401ef0:	48 81 c4 10 40 00 00 	add    $0x4010,%rsp
  401ef7:	5b                   	pop    %rbx
  401ef8:	c3                   	retq   

0000000000401ef9 <validate>:
  401ef9:	53                   	push   %rbx
  401efa:	89 fb                	mov    %edi,%ebx
  401efc:	83 3d 25 36 20 00 00 	cmpl   $0x0,0x203625(%rip)        # 605528 <is_checker>
  401f03:	74 6b                	je     401f70 <validate+0x77>
  401f05:	39 3d 11 36 20 00    	cmp    %edi,0x203611(%rip)        # 60551c <vlevel>
  401f0b:	74 14                	je     401f21 <validate+0x28>
  401f0d:	bf 02 36 40 00       	mov    $0x403602,%edi
  401f12:	e8 b9 ed ff ff       	callq  400cd0 <puts@plt>
  401f17:	b8 00 00 00 00       	mov    $0x0,%eax
  401f1c:	e8 5e fd ff ff       	callq  401c7f <check_fail>
  401f21:	8b 15 f1 35 20 00    	mov    0x2035f1(%rip),%edx        # 605518 <check_level>
  401f27:	39 d7                	cmp    %edx,%edi
  401f29:	74 20                	je     401f4b <validate+0x52>
  401f2b:	89 f9                	mov    %edi,%ecx
  401f2d:	be 40 37 40 00       	mov    $0x403740,%esi
  401f32:	bf 01 00 00 00       	mov    $0x1,%edi
  401f37:	b8 00 00 00 00       	mov    $0x0,%eax
  401f3c:	e8 bf ee ff ff       	callq  400e00 <__printf_chk@plt>
  401f41:	b8 00 00 00 00       	mov    $0x0,%eax
  401f46:	e8 34 fd ff ff       	callq  401c7f <check_fail>
  401f4b:	0f be 15 f6 41 20 00 	movsbl 0x2041f6(%rip),%edx        # 606148 <target_prefix>
  401f52:	41 b8 40 55 60 00    	mov    $0x605540,%r8d
  401f58:	89 f9                	mov    %edi,%ecx
  401f5a:	be 20 36 40 00       	mov    $0x403620,%esi
  401f5f:	bf 01 00 00 00       	mov    $0x1,%edi
  401f64:	b8 00 00 00 00       	mov    $0x0,%eax
  401f69:	e8 92 ee ff ff       	callq  400e00 <__printf_chk@plt>
  401f6e:	eb 49                	jmp    401fb9 <validate+0xc0>
  401f70:	3b 3d a6 35 20 00    	cmp    0x2035a6(%rip),%edi        # 60551c <vlevel>
  401f76:	74 18                	je     401f90 <validate+0x97>
  401f78:	bf 02 36 40 00       	mov    $0x403602,%edi
  401f7d:	e8 4e ed ff ff       	callq  400cd0 <puts@plt>
  401f82:	89 de                	mov    %ebx,%esi
  401f84:	bf 00 00 00 00       	mov    $0x0,%edi
  401f89:	e8 78 fd ff ff       	callq  401d06 <notify_server>
  401f8e:	eb 29                	jmp    401fb9 <validate+0xc0>
  401f90:	0f be 0d b1 41 20 00 	movsbl 0x2041b1(%rip),%ecx        # 606148 <target_prefix>
  401f97:	89 fa                	mov    %edi,%edx
  401f99:	be 68 37 40 00       	mov    $0x403768,%esi
  401f9e:	bf 01 00 00 00       	mov    $0x1,%edi
  401fa3:	b8 00 00 00 00       	mov    $0x0,%eax
  401fa8:	e8 53 ee ff ff       	callq  400e00 <__printf_chk@plt>
  401fad:	89 de                	mov    %ebx,%esi
  401faf:	bf 01 00 00 00       	mov    $0x1,%edi
  401fb4:	e8 4d fd ff ff       	callq  401d06 <notify_server>
  401fb9:	5b                   	pop    %rbx
  401fba:	c3                   	retq   

0000000000401fbb <fail>:
  401fbb:	48 83 ec 08          	sub    $0x8,%rsp
  401fbf:	83 3d 62 35 20 00 00 	cmpl   $0x0,0x203562(%rip)        # 605528 <is_checker>
  401fc6:	74 0a                	je     401fd2 <fail+0x17>
  401fc8:	b8 00 00 00 00       	mov    $0x0,%eax
  401fcd:	e8 ad fc ff ff       	callq  401c7f <check_fail>
  401fd2:	89 fe                	mov    %edi,%esi
  401fd4:	bf 00 00 00 00       	mov    $0x0,%edi
  401fd9:	e8 28 fd ff ff       	callq  401d06 <notify_server>
  401fde:	48 83 c4 08          	add    $0x8,%rsp
  401fe2:	c3                   	retq   

0000000000401fe3 <bushandler>:
  401fe3:	48 83 ec 08          	sub    $0x8,%rsp
  401fe7:	83 3d 3a 35 20 00 00 	cmpl   $0x0,0x20353a(%rip)        # 605528 <is_checker>
  401fee:	74 14                	je     402004 <bushandler+0x21>
  401ff0:	bf 35 36 40 00       	mov    $0x403635,%edi
  401ff5:	e8 d6 ec ff ff       	callq  400cd0 <puts@plt>
  401ffa:	b8 00 00 00 00       	mov    $0x0,%eax
  401fff:	e8 7b fc ff ff       	callq  401c7f <check_fail>
  402004:	bf a0 37 40 00       	mov    $0x4037a0,%edi
  402009:	e8 c2 ec ff ff       	callq  400cd0 <puts@plt>
  40200e:	bf 3f 36 40 00       	mov    $0x40363f,%edi
  402013:	e8 b8 ec ff ff       	callq  400cd0 <puts@plt>
  402018:	be 00 00 00 00       	mov    $0x0,%esi
  40201d:	bf 00 00 00 00       	mov    $0x0,%edi
  402022:	e8 df fc ff ff       	callq  401d06 <notify_server>
  402027:	bf 01 00 00 00       	mov    $0x1,%edi
  40202c:	e8 1f ee ff ff       	callq  400e50 <exit@plt>

0000000000402031 <seghandler>:
  402031:	48 83 ec 08          	sub    $0x8,%rsp
  402035:	83 3d ec 34 20 00 00 	cmpl   $0x0,0x2034ec(%rip)        # 605528 <is_checker>
  40203c:	74 14                	je     402052 <seghandler+0x21>
  40203e:	bf 55 36 40 00       	mov    $0x403655,%edi
  402043:	e8 88 ec ff ff       	callq  400cd0 <puts@plt>
  402048:	b8 00 00 00 00       	mov    $0x0,%eax
  40204d:	e8 2d fc ff ff       	callq  401c7f <check_fail>
  402052:	bf c0 37 40 00       	mov    $0x4037c0,%edi
  402057:	e8 74 ec ff ff       	callq  400cd0 <puts@plt>
  40205c:	bf 3f 36 40 00       	mov    $0x40363f,%edi
  402061:	e8 6a ec ff ff       	callq  400cd0 <puts@plt>
  402066:	be 00 00 00 00       	mov    $0x0,%esi
  40206b:	bf 00 00 00 00       	mov    $0x0,%edi
  402070:	e8 91 fc ff ff       	callq  401d06 <notify_server>
  402075:	bf 01 00 00 00       	mov    $0x1,%edi
  40207a:	e8 d1 ed ff ff       	callq  400e50 <exit@plt>

000000000040207f <illegalhandler>:
  40207f:	48 83 ec 08          	sub    $0x8,%rsp
  402083:	83 3d 9e 34 20 00 00 	cmpl   $0x0,0x20349e(%rip)        # 605528 <is_checker>
  40208a:	74 14                	je     4020a0 <illegalhandler+0x21>
  40208c:	bf 68 36 40 00       	mov    $0x403668,%edi
  402091:	e8 3a ec ff ff       	callq  400cd0 <puts@plt>
  402096:	b8 00 00 00 00       	mov    $0x0,%eax
  40209b:	e8 df fb ff ff       	callq  401c7f <check_fail>
  4020a0:	bf e8 37 40 00       	mov    $0x4037e8,%edi
  4020a5:	e8 26 ec ff ff       	callq  400cd0 <puts@plt>
  4020aa:	bf 3f 36 40 00       	mov    $0x40363f,%edi
  4020af:	e8 1c ec ff ff       	callq  400cd0 <puts@plt>
  4020b4:	be 00 00 00 00       	mov    $0x0,%esi
  4020b9:	bf 00 00 00 00       	mov    $0x0,%edi
  4020be:	e8 43 fc ff ff       	callq  401d06 <notify_server>
  4020c3:	bf 01 00 00 00       	mov    $0x1,%edi
  4020c8:	e8 83 ed ff ff       	callq  400e50 <exit@plt>

00000000004020cd <sigalrmhandler>:
  4020cd:	48 83 ec 08          	sub    $0x8,%rsp
  4020d1:	83 3d 50 34 20 00 00 	cmpl   $0x0,0x203450(%rip)        # 605528 <is_checker>
  4020d8:	74 14                	je     4020ee <sigalrmhandler+0x21>
  4020da:	bf 7c 36 40 00       	mov    $0x40367c,%edi
  4020df:	e8 ec eb ff ff       	callq  400cd0 <puts@plt>
  4020e4:	b8 00 00 00 00       	mov    $0x0,%eax
  4020e9:	e8 91 fb ff ff       	callq  401c7f <check_fail>
  4020ee:	ba 05 00 00 00       	mov    $0x5,%edx
  4020f3:	be 18 38 40 00       	mov    $0x403818,%esi
  4020f8:	bf 01 00 00 00       	mov    $0x1,%edi
  4020fd:	b8 00 00 00 00       	mov    $0x0,%eax
  402102:	e8 f9 ec ff ff       	callq  400e00 <__printf_chk@plt>
  402107:	be 00 00 00 00       	mov    $0x0,%esi
  40210c:	bf 00 00 00 00       	mov    $0x0,%edi
  402111:	e8 f0 fb ff ff       	callq  401d06 <notify_server>
  402116:	bf 01 00 00 00       	mov    $0x1,%edi
  40211b:	e8 30 ed ff ff       	callq  400e50 <exit@plt>

0000000000402120 <launch>:
  402120:	55                   	push   %rbp
  402121:	48 89 e5             	mov    %rsp,%rbp
  402124:	48 83 ec 10          	sub    $0x10,%rsp
  402128:	48 89 fa             	mov    %rdi,%rdx
  40212b:	64 48 8b 04 25 28 00 	mov    %fs:0x28,%rax
  402132:	00 00 
  402134:	48 89 45 f8          	mov    %rax,-0x8(%rbp)
  402138:	31 c0                	xor    %eax,%eax
  40213a:	48 8d 47 1e          	lea    0x1e(%rdi),%rax
  40213e:	48 83 e0 f0          	and    $0xfffffffffffffff0,%rax
  402142:	48 29 c4             	sub    %rax,%rsp
  402145:	48 8d 7c 24 0f       	lea    0xf(%rsp),%rdi
  40214a:	48 83 e7 f0          	and    $0xfffffffffffffff0,%rdi
  40214e:	be f4 00 00 00       	mov    $0xf4,%esi
  402153:	e8 b8 eb ff ff       	callq  400d10 <memset@plt>
  402158:	48 8b 05 61 33 20 00 	mov    0x203361(%rip),%rax        # 6054c0 <stdin@@GLIBC_2.2.5>
  40215f:	48 39 05 aa 33 20 00 	cmp    %rax,0x2033aa(%rip)        # 605510 <infile>
  402166:	75 14                	jne    40217c <launch+0x5c>
  402168:	be 84 36 40 00       	mov    $0x403684,%esi
  40216d:	bf 01 00 00 00       	mov    $0x1,%edi
  402172:	b8 00 00 00 00       	mov    $0x0,%eax
  402177:	e8 84 ec ff ff       	callq  400e00 <__printf_chk@plt>
  40217c:	c7 05 96 33 20 00 00 	movl   $0x0,0x203396(%rip)        # 60551c <vlevel>
  402183:	00 00 00 
  402186:	b8 00 00 00 00       	mov    $0x0,%eax
  40218b:	e8 3c f9 ff ff       	callq  401acc <test>
  402190:	83 3d 91 33 20 00 00 	cmpl   $0x0,0x203391(%rip)        # 605528 <is_checker>
  402197:	74 14                	je     4021ad <launch+0x8d>
  402199:	bf 91 36 40 00       	mov    $0x403691,%edi
  40219e:	e8 2d eb ff ff       	callq  400cd0 <puts@plt>
  4021a3:	b8 00 00 00 00       	mov    $0x0,%eax
  4021a8:	e8 d2 fa ff ff       	callq  401c7f <check_fail>
  4021ad:	bf 9c 36 40 00       	mov    $0x40369c,%edi
  4021b2:	e8 19 eb ff ff       	callq  400cd0 <puts@plt>
  4021b7:	48 8b 45 f8          	mov    -0x8(%rbp),%rax
  4021bb:	64 48 33 04 25 28 00 	xor    %fs:0x28,%rax
  4021c2:	00 00 
  4021c4:	74 05                	je     4021cb <launch+0xab>
  4021c6:	e8 25 eb ff ff       	callq  400cf0 <__stack_chk_fail@plt>
  4021cb:	c9                   	leaveq 
  4021cc:	c3                   	retq   

00000000004021cd <stable_launch>:
  4021cd:	53                   	push   %rbx
  4021ce:	48 89 3d 33 33 20 00 	mov    %rdi,0x203333(%rip)        # 605508 <global_offset>
  4021d5:	41 b9 00 00 00 00    	mov    $0x0,%r9d
  4021db:	41 b8 00 00 00 00    	mov    $0x0,%r8d
  4021e1:	b9 32 01 00 00       	mov    $0x132,%ecx
  4021e6:	ba 07 00 00 00       	mov    $0x7,%edx
  4021eb:	be 00 00 10 00       	mov    $0x100000,%esi
  4021f0:	bf 00 60 58 55       	mov    $0x55586000,%edi
  4021f5:	e8 06 eb ff ff       	callq  400d00 <mmap@plt>
  4021fa:	48 89 c3             	mov    %rax,%rbx
  4021fd:	48 3d 00 60 58 55    	cmp    $0x55586000,%rax
  402203:	74 37                	je     40223c <stable_launch+0x6f>
  402205:	be 00 00 10 00       	mov    $0x100000,%esi
  40220a:	48 89 c7             	mov    %rax,%rdi
  40220d:	e8 de eb ff ff       	callq  400df0 <munmap@plt>
  402212:	b9 00 60 58 55       	mov    $0x55586000,%ecx
  402217:	ba 50 38 40 00       	mov    $0x403850,%edx
  40221c:	be 01 00 00 00       	mov    $0x1,%esi
  402221:	48 8b 3d b8 32 20 00 	mov    0x2032b8(%rip),%rdi        # 6054e0 <stderr@@GLIBC_2.2.5>
  402228:	b8 00 00 00 00       	mov    $0x0,%eax
  40222d:	e8 3e ec ff ff       	callq  400e70 <__fprintf_chk@plt>
  402232:	bf 01 00 00 00       	mov    $0x1,%edi
  402237:	e8 14 ec ff ff       	callq  400e50 <exit@plt>
  40223c:	48 8d 90 f8 ff 0f 00 	lea    0xffff8(%rax),%rdx
  402243:	48 89 15 06 3f 20 00 	mov    %rdx,0x203f06(%rip)        # 606150 <stack_top>
  40224a:	48 89 e0             	mov    %rsp,%rax
  40224d:	48 89 d4             	mov    %rdx,%rsp
  402250:	48 89 c2             	mov    %rax,%rdx
  402253:	48 89 15 a6 32 20 00 	mov    %rdx,0x2032a6(%rip)        # 605500 <global_save_stack>
  40225a:	48 8b 3d a7 32 20 00 	mov    0x2032a7(%rip),%rdi        # 605508 <global_offset>
  402261:	e8 ba fe ff ff       	callq  402120 <launch>
  402266:	48 8b 05 93 32 20 00 	mov    0x203293(%rip),%rax        # 605500 <global_save_stack>
  40226d:	48 89 c4             	mov    %rax,%rsp
  402270:	be 00 00 10 00       	mov    $0x100000,%esi
  402275:	48 89 df             	mov    %rbx,%rdi
  402278:	e8 73 eb ff ff       	callq  400df0 <munmap@plt>
  40227d:	5b                   	pop    %rbx
  40227e:	c3                   	retq   

000000000040227f <rio_readinitb>:
  40227f:	89 37                	mov    %esi,(%rdi)
  402281:	c7 47 04 00 00 00 00 	movl   $0x0,0x4(%rdi)
  402288:	48 8d 47 10          	lea    0x10(%rdi),%rax
  40228c:	48 89 47 08          	mov    %rax,0x8(%rdi)
  402290:	c3                   	retq   

0000000000402291 <sigalrm_handler>:
  402291:	48 83 ec 08          	sub    $0x8,%rsp
  402295:	b9 00 00 00 00       	mov    $0x0,%ecx
  40229a:	ba 90 38 40 00       	mov    $0x403890,%edx
  40229f:	be 01 00 00 00       	mov    $0x1,%esi
  4022a4:	48 8b 3d 35 32 20 00 	mov    0x203235(%rip),%rdi        # 6054e0 <stderr@@GLIBC_2.2.5>
  4022ab:	b8 00 00 00 00       	mov    $0x0,%eax
  4022b0:	e8 bb eb ff ff       	callq  400e70 <__fprintf_chk@plt>
  4022b5:	bf 01 00 00 00       	mov    $0x1,%edi
  4022ba:	e8 91 eb ff ff       	callq  400e50 <exit@plt>

00000000004022bf <rio_writen>:
  4022bf:	41 55                	push   %r13
  4022c1:	41 54                	push   %r12
  4022c3:	55                   	push   %rbp
  4022c4:	53                   	push   %rbx
  4022c5:	48 83 ec 08          	sub    $0x8,%rsp
  4022c9:	41 89 fc             	mov    %edi,%r12d
  4022cc:	48 89 f5             	mov    %rsi,%rbp
  4022cf:	49 89 d5             	mov    %rdx,%r13
  4022d2:	48 89 d3             	mov    %rdx,%rbx
  4022d5:	eb 28                	jmp    4022ff <rio_writen+0x40>
  4022d7:	48 89 da             	mov    %rbx,%rdx
  4022da:	48 89 ee             	mov    %rbp,%rsi
  4022dd:	44 89 e7             	mov    %r12d,%edi
  4022e0:	e8 fb e9 ff ff       	callq  400ce0 <write@plt>
  4022e5:	48 85 c0             	test   %rax,%rax
  4022e8:	7f 0f                	jg     4022f9 <rio_writen+0x3a>
  4022ea:	e8 a1 e9 ff ff       	callq  400c90 <__errno_location@plt>
  4022ef:	83 38 04             	cmpl   $0x4,(%rax)
  4022f2:	75 15                	jne    402309 <rio_writen+0x4a>
  4022f4:	b8 00 00 00 00       	mov    $0x0,%eax
  4022f9:	48 29 c3             	sub    %rax,%rbx
  4022fc:	48 01 c5             	add    %rax,%rbp
  4022ff:	48 85 db             	test   %rbx,%rbx
  402302:	75 d3                	jne    4022d7 <rio_writen+0x18>
  402304:	4c 89 e8             	mov    %r13,%rax
  402307:	eb 07                	jmp    402310 <rio_writen+0x51>
  402309:	48 c7 c0 ff ff ff ff 	mov    $0xffffffffffffffff,%rax
  402310:	48 83 c4 08          	add    $0x8,%rsp
  402314:	5b                   	pop    %rbx
  402315:	5d                   	pop    %rbp
  402316:	41 5c                	pop    %r12
  402318:	41 5d                	pop    %r13
  40231a:	c3                   	retq   

000000000040231b <rio_read>:
  40231b:	41 55                	push   %r13
  40231d:	41 54                	push   %r12
  40231f:	55                   	push   %rbp
  402320:	53                   	push   %rbx
  402321:	48 83 ec 08          	sub    $0x8,%rsp
  402325:	48 89 fb             	mov    %rdi,%rbx
  402328:	49 89 f5             	mov    %rsi,%r13
  40232b:	49 89 d4             	mov    %rdx,%r12
  40232e:	eb 2e                	jmp    40235e <rio_read+0x43>
  402330:	48 8d 6b 10          	lea    0x10(%rbx),%rbp
  402334:	8b 3b                	mov    (%rbx),%edi
  402336:	ba 00 20 00 00       	mov    $0x2000,%edx
  40233b:	48 89 ee             	mov    %rbp,%rsi
  40233e:	e8 fd e9 ff ff       	callq  400d40 <read@plt>
  402343:	89 43 04             	mov    %eax,0x4(%rbx)
  402346:	85 c0                	test   %eax,%eax
  402348:	79 0c                	jns    402356 <rio_read+0x3b>
  40234a:	e8 41 e9 ff ff       	callq  400c90 <__errno_location@plt>
  40234f:	83 38 04             	cmpl   $0x4,(%rax)
  402352:	74 0a                	je     40235e <rio_read+0x43>
  402354:	eb 37                	jmp    40238d <rio_read+0x72>
  402356:	85 c0                	test   %eax,%eax
  402358:	74 3c                	je     402396 <rio_read+0x7b>
  40235a:	48 89 6b 08          	mov    %rbp,0x8(%rbx)
  40235e:	8b 6b 04             	mov    0x4(%rbx),%ebp
  402361:	85 ed                	test   %ebp,%ebp
  402363:	7e cb                	jle    402330 <rio_read+0x15>
  402365:	89 e8                	mov    %ebp,%eax
  402367:	49 39 c4             	cmp    %rax,%r12
  40236a:	77 03                	ja     40236f <rio_read+0x54>
  40236c:	44 89 e5             	mov    %r12d,%ebp
  40236f:	4c 63 e5             	movslq %ebp,%r12
  402372:	48 8b 73 08          	mov    0x8(%rbx),%rsi
  402376:	4c 89 e2             	mov    %r12,%rdx
  402379:	4c 89 ef             	mov    %r13,%rdi
  40237c:	e8 1f ea ff ff       	callq  400da0 <memcpy@plt>
  402381:	4c 01 63 08          	add    %r12,0x8(%rbx)
  402385:	29 6b 04             	sub    %ebp,0x4(%rbx)
  402388:	4c 89 e0             	mov    %r12,%rax
  40238b:	eb 0e                	jmp    40239b <rio_read+0x80>
  40238d:	48 c7 c0 ff ff ff ff 	mov    $0xffffffffffffffff,%rax
  402394:	eb 05                	jmp    40239b <rio_read+0x80>
  402396:	b8 00 00 00 00       	mov    $0x0,%eax
  40239b:	48 83 c4 08          	add    $0x8,%rsp
  40239f:	5b                   	pop    %rbx
  4023a0:	5d                   	pop    %rbp
  4023a1:	41 5c                	pop    %r12
  4023a3:	41 5d                	pop    %r13
  4023a5:	c3                   	retq   

00000000004023a6 <rio_readlineb>:
  4023a6:	41 55                	push   %r13
  4023a8:	41 54                	push   %r12
  4023aa:	55                   	push   %rbp
  4023ab:	53                   	push   %rbx
  4023ac:	48 83 ec 18          	sub    $0x18,%rsp
  4023b0:	49 89 fd             	mov    %rdi,%r13
  4023b3:	48 89 f5             	mov    %rsi,%rbp
  4023b6:	49 89 d4             	mov    %rdx,%r12
  4023b9:	64 48 8b 04 25 28 00 	mov    %fs:0x28,%rax
  4023c0:	00 00 
  4023c2:	48 89 44 24 08       	mov    %rax,0x8(%rsp)
  4023c7:	31 c0                	xor    %eax,%eax
  4023c9:	bb 01 00 00 00       	mov    $0x1,%ebx
  4023ce:	eb 3f                	jmp    40240f <rio_readlineb+0x69>
  4023d0:	ba 01 00 00 00       	mov    $0x1,%edx
  4023d5:	48 8d 74 24 07       	lea    0x7(%rsp),%rsi
  4023da:	4c 89 ef             	mov    %r13,%rdi
  4023dd:	e8 39 ff ff ff       	callq  40231b <rio_read>
  4023e2:	83 f8 01             	cmp    $0x1,%eax
  4023e5:	75 15                	jne    4023fc <rio_readlineb+0x56>
  4023e7:	48 8d 45 01          	lea    0x1(%rbp),%rax
  4023eb:	0f b6 54 24 07       	movzbl 0x7(%rsp),%edx
  4023f0:	88 55 00             	mov    %dl,0x0(%rbp)
  4023f3:	80 7c 24 07 0a       	cmpb   $0xa,0x7(%rsp)
  4023f8:	75 0e                	jne    402408 <rio_readlineb+0x62>
  4023fa:	eb 1a                	jmp    402416 <rio_readlineb+0x70>
  4023fc:	85 c0                	test   %eax,%eax
  4023fe:	75 22                	jne    402422 <rio_readlineb+0x7c>
  402400:	48 83 fb 01          	cmp    $0x1,%rbx
  402404:	75 13                	jne    402419 <rio_readlineb+0x73>
  402406:	eb 23                	jmp    40242b <rio_readlineb+0x85>
  402408:	48 83 c3 01          	add    $0x1,%rbx
  40240c:	48 89 c5             	mov    %rax,%rbp
  40240f:	4c 39 e3             	cmp    %r12,%rbx
  402412:	72 bc                	jb     4023d0 <rio_readlineb+0x2a>
  402414:	eb 03                	jmp    402419 <rio_readlineb+0x73>
  402416:	48 89 c5             	mov    %rax,%rbp
  402419:	c6 45 00 00          	movb   $0x0,0x0(%rbp)
  40241d:	48 89 d8             	mov    %rbx,%rax
  402420:	eb 0e                	jmp    402430 <rio_readlineb+0x8a>
  402422:	48 c7 c0 ff ff ff ff 	mov    $0xffffffffffffffff,%rax
  402429:	eb 05                	jmp    402430 <rio_readlineb+0x8a>
  40242b:	b8 00 00 00 00       	mov    $0x0,%eax
  402430:	48 8b 4c 24 08       	mov    0x8(%rsp),%rcx
  402435:	64 48 33 0c 25 28 00 	xor    %fs:0x28,%rcx
  40243c:	00 00 
  40243e:	74 05                	je     402445 <rio_readlineb+0x9f>
  402440:	e8 ab e8 ff ff       	callq  400cf0 <__stack_chk_fail@plt>
  402445:	48 83 c4 18          	add    $0x18,%rsp
  402449:	5b                   	pop    %rbx
  40244a:	5d                   	pop    %rbp
  40244b:	41 5c                	pop    %r12
  40244d:	41 5d                	pop    %r13
  40244f:	c3                   	retq   

0000000000402450 <urlencode>:
  402450:	41 54                	push   %r12
  402452:	55                   	push   %rbp
  402453:	53                   	push   %rbx
  402454:	48 83 ec 10          	sub    $0x10,%rsp
  402458:	48 89 fb             	mov    %rdi,%rbx
  40245b:	48 89 f5             	mov    %rsi,%rbp
  40245e:	64 48 8b 04 25 28 00 	mov    %fs:0x28,%rax
  402465:	00 00 
  402467:	48 89 44 24 08       	mov    %rax,0x8(%rsp)
  40246c:	31 c0                	xor    %eax,%eax
  40246e:	48 c7 c1 ff ff ff ff 	mov    $0xffffffffffffffff,%rcx
  402475:	f2 ae                	repnz scas %es:(%rdi),%al
  402477:	48 f7 d1             	not    %rcx
  40247a:	8d 41 ff             	lea    -0x1(%rcx),%eax
  40247d:	e9 aa 00 00 00       	jmpq   40252c <urlencode+0xdc>
  402482:	44 0f b6 03          	movzbl (%rbx),%r8d
  402486:	41 80 f8 2a          	cmp    $0x2a,%r8b
  40248a:	0f 94 c2             	sete   %dl
  40248d:	41 80 f8 2d          	cmp    $0x2d,%r8b
  402491:	0f 94 c0             	sete   %al
  402494:	08 c2                	or     %al,%dl
  402496:	75 24                	jne    4024bc <urlencode+0x6c>
  402498:	41 80 f8 2e          	cmp    $0x2e,%r8b
  40249c:	74 1e                	je     4024bc <urlencode+0x6c>
  40249e:	41 80 f8 5f          	cmp    $0x5f,%r8b
  4024a2:	74 18                	je     4024bc <urlencode+0x6c>
  4024a4:	41 8d 40 d0          	lea    -0x30(%r8),%eax
  4024a8:	3c 09                	cmp    $0x9,%al
  4024aa:	76 10                	jbe    4024bc <urlencode+0x6c>
  4024ac:	41 8d 40 bf          	lea    -0x41(%r8),%eax
  4024b0:	3c 19                	cmp    $0x19,%al
  4024b2:	76 08                	jbe    4024bc <urlencode+0x6c>
  4024b4:	41 8d 40 9f          	lea    -0x61(%r8),%eax
  4024b8:	3c 19                	cmp    $0x19,%al
  4024ba:	77 0a                	ja     4024c6 <urlencode+0x76>
  4024bc:	44 88 45 00          	mov    %r8b,0x0(%rbp)
  4024c0:	48 8d 6d 01          	lea    0x1(%rbp),%rbp
  4024c4:	eb 5f                	jmp    402525 <urlencode+0xd5>
  4024c6:	41 80 f8 20          	cmp    $0x20,%r8b
  4024ca:	75 0a                	jne    4024d6 <urlencode+0x86>
  4024cc:	c6 45 00 2b          	movb   $0x2b,0x0(%rbp)
  4024d0:	48 8d 6d 01          	lea    0x1(%rbp),%rbp
  4024d4:	eb 4f                	jmp    402525 <urlencode+0xd5>
  4024d6:	41 8d 40 e0          	lea    -0x20(%r8),%eax
  4024da:	3c 5f                	cmp    $0x5f,%al
  4024dc:	0f 96 c2             	setbe  %dl
  4024df:	41 80 f8 09          	cmp    $0x9,%r8b
  4024e3:	0f 94 c0             	sete   %al
  4024e6:	08 c2                	or     %al,%dl
  4024e8:	74 50                	je     40253a <urlencode+0xea>
  4024ea:	45 0f b6 c0          	movzbl %r8b,%r8d
  4024ee:	b9 28 39 40 00       	mov    $0x403928,%ecx
  4024f3:	ba 08 00 00 00       	mov    $0x8,%edx
  4024f8:	be 01 00 00 00       	mov    $0x1,%esi
  4024fd:	48 89 e7             	mov    %rsp,%rdi
  402500:	b8 00 00 00 00       	mov    $0x0,%eax
  402505:	e8 76 e9 ff ff       	callq  400e80 <__sprintf_chk@plt>
  40250a:	0f b6 04 24          	movzbl (%rsp),%eax
  40250e:	88 45 00             	mov    %al,0x0(%rbp)
  402511:	0f b6 44 24 01       	movzbl 0x1(%rsp),%eax
  402516:	88 45 01             	mov    %al,0x1(%rbp)
  402519:	0f b6 44 24 02       	movzbl 0x2(%rsp),%eax
  40251e:	88 45 02             	mov    %al,0x2(%rbp)
  402521:	48 8d 6d 03          	lea    0x3(%rbp),%rbp
  402525:	48 83 c3 01          	add    $0x1,%rbx
  402529:	44 89 e0             	mov    %r12d,%eax
  40252c:	44 8d 60 ff          	lea    -0x1(%rax),%r12d
  402530:	85 c0                	test   %eax,%eax
  402532:	0f 85 4a ff ff ff    	jne    402482 <urlencode+0x32>
  402538:	eb 05                	jmp    40253f <urlencode+0xef>
  40253a:	b8 ff ff ff ff       	mov    $0xffffffff,%eax
  40253f:	48 8b 74 24 08       	mov    0x8(%rsp),%rsi
  402544:	64 48 33 34 25 28 00 	xor    %fs:0x28,%rsi
  40254b:	00 00 
  40254d:	74 05                	je     402554 <urlencode+0x104>
  40254f:	e8 9c e7 ff ff       	callq  400cf0 <__stack_chk_fail@plt>
  402554:	48 83 c4 10          	add    $0x10,%rsp
  402558:	5b                   	pop    %rbx
  402559:	5d                   	pop    %rbp
  40255a:	41 5c                	pop    %r12
  40255c:	c3                   	retq   

000000000040255d <submitr>:
  40255d:	41 57                	push   %r15
  40255f:	41 56                	push   %r14
  402561:	41 55                	push   %r13
  402563:	41 54                	push   %r12
  402565:	55                   	push   %rbp
  402566:	53                   	push   %rbx
  402567:	48 81 ec 58 a0 00 00 	sub    $0xa058,%rsp
  40256e:	49 89 fc             	mov    %rdi,%r12
  402571:	89 74 24 04          	mov    %esi,0x4(%rsp)
  402575:	49 89 d7             	mov    %rdx,%r15
  402578:	49 89 ce             	mov    %rcx,%r14
  40257b:	4c 89 44 24 08       	mov    %r8,0x8(%rsp)
  402580:	4d 89 cd             	mov    %r9,%r13
  402583:	48 8b 9c 24 90 a0 00 	mov    0xa090(%rsp),%rbx
  40258a:	00 
  40258b:	64 48 8b 04 25 28 00 	mov    %fs:0x28,%rax
  402592:	00 00 
  402594:	48 89 84 24 48 a0 00 	mov    %rax,0xa048(%rsp)
  40259b:	00 
  40259c:	31 c0                	xor    %eax,%eax
  40259e:	c7 44 24 1c 00 00 00 	movl   $0x0,0x1c(%rsp)
  4025a5:	00 
  4025a6:	ba 00 00 00 00       	mov    $0x0,%edx
  4025ab:	be 01 00 00 00       	mov    $0x1,%esi
  4025b0:	bf 02 00 00 00       	mov    $0x2,%edi
  4025b5:	e8 d6 e8 ff ff       	callq  400e90 <socket@plt>
  4025ba:	85 c0                	test   %eax,%eax
  4025bc:	79 4e                	jns    40260c <submitr+0xaf>
  4025be:	48 b8 45 72 72 6f 72 	movabs $0x43203a726f727245,%rax
  4025c5:	3a 20 43 
  4025c8:	48 89 03             	mov    %rax,(%rbx)
  4025cb:	48 b8 6c 69 65 6e 74 	movabs $0x6e7520746e65696c,%rax
  4025d2:	20 75 6e 
  4025d5:	48 89 43 08          	mov    %rax,0x8(%rbx)
  4025d9:	48 b8 61 62 6c 65 20 	movabs $0x206f7420656c6261,%rax
  4025e0:	74 6f 20 
  4025e3:	48 89 43 10          	mov    %rax,0x10(%rbx)
  4025e7:	48 b8 63 72 65 61 74 	movabs $0x7320657461657263,%rax
  4025ee:	65 20 73 
  4025f1:	48 89 43 18          	mov    %rax,0x18(%rbx)
  4025f5:	c7 43 20 6f 63 6b 65 	movl   $0x656b636f,0x20(%rbx)
  4025fc:	66 c7 43 24 74 00    	movw   $0x74,0x24(%rbx)
  402602:	b8 ff ff ff ff       	mov    $0xffffffff,%eax
  402607:	e9 97 06 00 00       	jmpq   402ca3 <submitr+0x746>
  40260c:	89 c5                	mov    %eax,%ebp
  40260e:	4c 89 e7             	mov    %r12,%rdi
  402611:	e8 5a e7 ff ff       	callq  400d70 <gethostbyname@plt>
  402616:	48 85 c0             	test   %rax,%rax
  402619:	75 67                	jne    402682 <submitr+0x125>
  40261b:	48 b8 45 72 72 6f 72 	movabs $0x44203a726f727245,%rax
  402622:	3a 20 44 
  402625:	48 89 03             	mov    %rax,(%rbx)
  402628:	48 b8 4e 53 20 69 73 	movabs $0x6e7520736920534e,%rax
  40262f:	20 75 6e 
  402632:	48 89 43 08          	mov    %rax,0x8(%rbx)
  402636:	48 b8 61 62 6c 65 20 	movabs $0x206f7420656c6261,%rax
  40263d:	74 6f 20 
  402640:	48 89 43 10          	mov    %rax,0x10(%rbx)
  402644:	48 b8 72 65 73 6f 6c 	movabs $0x2065766c6f736572,%rax
  40264b:	76 65 20 
  40264e:	48 89 43 18          	mov    %rax,0x18(%rbx)
  402652:	48 b8 73 65 72 76 65 	movabs $0x6120726576726573,%rax
  402659:	72 20 61 
  40265c:	48 89 43 20          	mov    %rax,0x20(%rbx)
  402660:	c7 43 28 64 64 72 65 	movl   $0x65726464,0x28(%rbx)
  402667:	66 c7 43 2c 73 73    	movw   $0x7373,0x2c(%rbx)
  40266d:	c6 43 2e 00          	movb   $0x0,0x2e(%rbx)
  402671:	89 ef                	mov    %ebp,%edi
  402673:	e8 b8 e6 ff ff       	callq  400d30 <close@plt>
  402678:	b8 ff ff ff ff       	mov    $0xffffffff,%eax
  40267d:	e9 21 06 00 00       	jmpq   402ca3 <submitr+0x746>
  402682:	48 c7 44 24 20 00 00 	movq   $0x0,0x20(%rsp)
  402689:	00 00 
  40268b:	48 c7 44 24 28 00 00 	movq   $0x0,0x28(%rsp)
  402692:	00 00 
  402694:	66 c7 44 24 20 02 00 	movw   $0x2,0x20(%rsp)
  40269b:	48 63 50 14          	movslq 0x14(%rax),%rdx
  40269f:	48 8b 40 18          	mov    0x18(%rax),%rax
  4026a3:	48 8b 30             	mov    (%rax),%rsi
  4026a6:	48 8d 7c 24 24       	lea    0x24(%rsp),%rdi
  4026ab:	b9 0c 00 00 00       	mov    $0xc,%ecx
  4026b0:	e8 cb e6 ff ff       	callq  400d80 <__memmove_chk@plt>
  4026b5:	0f b7 44 24 04       	movzwl 0x4(%rsp),%eax
  4026ba:	66 c1 c8 08          	ror    $0x8,%ax
  4026be:	66 89 44 24 22       	mov    %ax,0x22(%rsp)
  4026c3:	ba 10 00 00 00       	mov    $0x10,%edx
  4026c8:	48 8d 74 24 20       	lea    0x20(%rsp),%rsi
  4026cd:	89 ef                	mov    %ebp,%edi
  4026cf:	e8 8c e7 ff ff       	callq  400e60 <connect@plt>
  4026d4:	85 c0                	test   %eax,%eax
  4026d6:	79 59                	jns    402731 <submitr+0x1d4>
  4026d8:	48 b8 45 72 72 6f 72 	movabs $0x55203a726f727245,%rax
  4026df:	3a 20 55 
  4026e2:	48 89 03             	mov    %rax,(%rbx)
  4026e5:	48 b8 6e 61 62 6c 65 	movabs $0x6f7420656c62616e,%rax
  4026ec:	20 74 6f 
  4026ef:	48 89 43 08          	mov    %rax,0x8(%rbx)
  4026f3:	48 b8 20 63 6f 6e 6e 	movabs $0x7463656e6e6f6320,%rax
  4026fa:	65 63 74 
  4026fd:	48 89 43 10          	mov    %rax,0x10(%rbx)
  402701:	48 b8 20 74 6f 20 74 	movabs $0x20656874206f7420,%rax
  402708:	68 65 20 
  40270b:	48 89 43 18          	mov    %rax,0x18(%rbx)
  40270f:	c7 43 20 73 65 72 76 	movl   $0x76726573,0x20(%rbx)
  402716:	66 c7 43 24 65 72    	movw   $0x7265,0x24(%rbx)
  40271c:	c6 43 26 00          	movb   $0x0,0x26(%rbx)
  402720:	89 ef                	mov    %ebp,%edi
  402722:	e8 09 e6 ff ff       	callq  400d30 <close@plt>
  402727:	b8 ff ff ff ff       	mov    $0xffffffff,%eax
  40272c:	e9 72 05 00 00       	jmpq   402ca3 <submitr+0x746>
  402731:	48 c7 c6 ff ff ff ff 	mov    $0xffffffffffffffff,%rsi
  402738:	b8 00 00 00 00       	mov    $0x0,%eax
  40273d:	48 89 f1             	mov    %rsi,%rcx
  402740:	4c 89 ef             	mov    %r13,%rdi
  402743:	f2 ae                	repnz scas %es:(%rdi),%al
  402745:	48 f7 d1             	not    %rcx
  402748:	48 89 ca             	mov    %rcx,%rdx
  40274b:	48 89 f1             	mov    %rsi,%rcx
  40274e:	4c 89 ff             	mov    %r15,%rdi
  402751:	f2 ae                	repnz scas %es:(%rdi),%al
  402753:	48 f7 d1             	not    %rcx
  402756:	49 89 c8             	mov    %rcx,%r8
  402759:	48 89 f1             	mov    %rsi,%rcx
  40275c:	4c 89 f7             	mov    %r14,%rdi
  40275f:	f2 ae                	repnz scas %es:(%rdi),%al
  402761:	48 f7 d1             	not    %rcx
  402764:	4d 8d 44 08 fe       	lea    -0x2(%r8,%rcx,1),%r8
  402769:	48 89 f1             	mov    %rsi,%rcx
  40276c:	48 8b 7c 24 08       	mov    0x8(%rsp),%rdi
  402771:	f2 ae                	repnz scas %es:(%rdi),%al
  402773:	48 89 c8             	mov    %rcx,%rax
  402776:	48 f7 d0             	not    %rax
  402779:	49 8d 4c 00 ff       	lea    -0x1(%r8,%rax,1),%rcx
  40277e:	48 8d 44 52 fd       	lea    -0x3(%rdx,%rdx,2),%rax
  402783:	48 8d 84 01 80 00 00 	lea    0x80(%rcx,%rax,1),%rax
  40278a:	00 
  40278b:	48 3d 00 20 00 00    	cmp    $0x2000,%rax
  402791:	76 72                	jbe    402805 <submitr+0x2a8>
  402793:	48 b8 45 72 72 6f 72 	movabs $0x52203a726f727245,%rax
  40279a:	3a 20 52 
  40279d:	48 89 03             	mov    %rax,(%rbx)
  4027a0:	48 b8 65 73 75 6c 74 	movabs $0x747320746c757365,%rax
  4027a7:	20 73 74 
  4027aa:	48 89 43 08          	mov    %rax,0x8(%rbx)
  4027ae:	48 b8 72 69 6e 67 20 	movabs $0x6f6f7420676e6972,%rax
  4027b5:	74 6f 6f 
  4027b8:	48 89 43 10          	mov    %rax,0x10(%rbx)
  4027bc:	48 b8 20 6c 61 72 67 	movabs $0x202e656772616c20,%rax
  4027c3:	65 2e 20 
  4027c6:	48 89 43 18          	mov    %rax,0x18(%rbx)
  4027ca:	48 b8 49 6e 63 72 65 	movabs $0x6573616572636e49,%rax
  4027d1:	61 73 65 
  4027d4:	48 89 43 20          	mov    %rax,0x20(%rbx)
  4027d8:	48 b8 20 53 55 42 4d 	movabs $0x5254494d42555320,%rax
  4027df:	49 54 52 
  4027e2:	48 89 43 28          	mov    %rax,0x28(%rbx)
  4027e6:	48 b8 5f 4d 41 58 42 	movabs $0x46554258414d5f,%rax
  4027ed:	55 46 00 
  4027f0:	48 89 43 30          	mov    %rax,0x30(%rbx)
  4027f4:	89 ef                	mov    %ebp,%edi
  4027f6:	e8 35 e5 ff ff       	callq  400d30 <close@plt>
  4027fb:	b8 ff ff ff ff       	mov    $0xffffffff,%eax
  402800:	e9 9e 04 00 00       	jmpq   402ca3 <submitr+0x746>
  402805:	48 8d b4 24 40 40 00 	lea    0x4040(%rsp),%rsi
  40280c:	00 
  40280d:	b9 00 04 00 00       	mov    $0x400,%ecx
  402812:	b8 00 00 00 00       	mov    $0x0,%eax
  402817:	48 89 f7             	mov    %rsi,%rdi
  40281a:	f3 48 ab             	rep stos %rax,%es:(%rdi)
  40281d:	4c 89 ef             	mov    %r13,%rdi
  402820:	e8 2b fc ff ff       	callq  402450 <urlencode>
  402825:	85 c0                	test   %eax,%eax
  402827:	0f 89 8a 00 00 00    	jns    4028b7 <submitr+0x35a>
  40282d:	48 b8 45 72 72 6f 72 	movabs $0x52203a726f727245,%rax
  402834:	3a 20 52 
  402837:	48 89 03             	mov    %rax,(%rbx)
  40283a:	48 b8 65 73 75 6c 74 	movabs $0x747320746c757365,%rax
  402841:	20 73 74 
  402844:	48 89 43 08          	mov    %rax,0x8(%rbx)
  402848:	48 b8 72 69 6e 67 20 	movabs $0x6e6f6320676e6972,%rax
  40284f:	63 6f 6e 
  402852:	48 89 43 10          	mov    %rax,0x10(%rbx)
  402856:	48 b8 74 61 69 6e 73 	movabs $0x6e6120736e696174,%rax
  40285d:	20 61 6e 
  402860:	48 89 43 18          	mov    %rax,0x18(%rbx)
  402864:	48 b8 20 69 6c 6c 65 	movabs $0x6c6167656c6c6920,%rax
  40286b:	67 61 6c 
  40286e:	48 89 43 20          	mov    %rax,0x20(%rbx)
  402872:	48 b8 20 6f 72 20 75 	movabs $0x72706e7520726f20,%rax
  402879:	6e 70 72 
  40287c:	48 89 43 28          	mov    %rax,0x28(%rbx)
  402880:	48 b8 69 6e 74 61 62 	movabs $0x20656c6261746e69,%rax
  402887:	6c 65 20 
  40288a:	48 89 43 30          	mov    %rax,0x30(%rbx)
  40288e:	48 b8 63 68 61 72 61 	movabs $0x6574636172616863,%rax
  402895:	63 74 65 
  402898:	48 89 43 38          	mov    %rax,0x38(%rbx)
  40289c:	66 c7 43 40 72 2e    	movw   $0x2e72,0x40(%rbx)
  4028a2:	c6 43 42 00          	movb   $0x0,0x42(%rbx)
  4028a6:	89 ef                	mov    %ebp,%edi
  4028a8:	e8 83 e4 ff ff       	callq  400d30 <close@plt>
  4028ad:	b8 ff ff ff ff       	mov    $0xffffffff,%eax
  4028b2:	e9 ec 03 00 00       	jmpq   402ca3 <submitr+0x746>
  4028b7:	4c 8d ac 24 40 20 00 	lea    0x2040(%rsp),%r13
  4028be:	00 
  4028bf:	41 54                	push   %r12
  4028c1:	48 8d 84 24 48 40 00 	lea    0x4048(%rsp),%rax
  4028c8:	00 
  4028c9:	50                   	push   %rax
  4028ca:	4d 89 f9             	mov    %r15,%r9
  4028cd:	4d 89 f0             	mov    %r14,%r8
  4028d0:	b9 b8 38 40 00       	mov    $0x4038b8,%ecx
  4028d5:	ba 00 20 00 00       	mov    $0x2000,%edx
  4028da:	be 01 00 00 00       	mov    $0x1,%esi
  4028df:	4c 89 ef             	mov    %r13,%rdi
  4028e2:	b8 00 00 00 00       	mov    $0x0,%eax
  4028e7:	e8 94 e5 ff ff       	callq  400e80 <__sprintf_chk@plt>
  4028ec:	b8 00 00 00 00       	mov    $0x0,%eax
  4028f1:	48 c7 c1 ff ff ff ff 	mov    $0xffffffffffffffff,%rcx
  4028f8:	4c 89 ef             	mov    %r13,%rdi
  4028fb:	f2 ae                	repnz scas %es:(%rdi),%al
  4028fd:	48 f7 d1             	not    %rcx
  402900:	48 8d 51 ff          	lea    -0x1(%rcx),%rdx
  402904:	4c 89 ee             	mov    %r13,%rsi
  402907:	89 ef                	mov    %ebp,%edi
  402909:	e8 b1 f9 ff ff       	callq  4022bf <rio_writen>
  40290e:	48 83 c4 10          	add    $0x10,%rsp
  402912:	48 85 c0             	test   %rax,%rax
  402915:	79 6e                	jns    402985 <submitr+0x428>
  402917:	48 b8 45 72 72 6f 72 	movabs $0x43203a726f727245,%rax
  40291e:	3a 20 43 
  402921:	48 89 03             	mov    %rax,(%rbx)
  402924:	48 b8 6c 69 65 6e 74 	movabs $0x6e7520746e65696c,%rax
  40292b:	20 75 6e 
  40292e:	48 89 43 08          	mov    %rax,0x8(%rbx)
  402932:	48 b8 61 62 6c 65 20 	movabs $0x206f7420656c6261,%rax
  402939:	74 6f 20 
  40293c:	48 89 43 10          	mov    %rax,0x10(%rbx)
  402940:	48 b8 77 72 69 74 65 	movabs $0x6f74206574697277,%rax
  402947:	20 74 6f 
  40294a:	48 89 43 18          	mov    %rax,0x18(%rbx)
  40294e:	48 b8 20 74 68 65 20 	movabs $0x7365722065687420,%rax
  402955:	72 65 73 
  402958:	48 89 43 20          	mov    %rax,0x20(%rbx)
  40295c:	48 b8 75 6c 74 20 73 	movabs $0x7672657320746c75,%rax
  402963:	65 72 76 
  402966:	48 89 43 28          	mov    %rax,0x28(%rbx)
  40296a:	66 c7 43 30 65 72    	movw   $0x7265,0x30(%rbx)
  402970:	c6 43 32 00          	movb   $0x0,0x32(%rbx)
  402974:	89 ef                	mov    %ebp,%edi
  402976:	e8 b5 e3 ff ff       	callq  400d30 <close@plt>
  40297b:	b8 ff ff ff ff       	mov    $0xffffffff,%eax
  402980:	e9 1e 03 00 00       	jmpq   402ca3 <submitr+0x746>
  402985:	89 ee                	mov    %ebp,%esi
  402987:	48 8d 7c 24 30       	lea    0x30(%rsp),%rdi
  40298c:	e8 ee f8 ff ff       	callq  40227f <rio_readinitb>
  402991:	ba 00 20 00 00       	mov    $0x2000,%edx
  402996:	48 8d b4 24 40 20 00 	lea    0x2040(%rsp),%rsi
  40299d:	00 
  40299e:	48 8d 7c 24 30       	lea    0x30(%rsp),%rdi
  4029a3:	e8 fe f9 ff ff       	callq  4023a6 <rio_readlineb>
  4029a8:	48 85 c0             	test   %rax,%rax
  4029ab:	7f 7d                	jg     402a2a <submitr+0x4cd>
  4029ad:	48 b8 45 72 72 6f 72 	movabs $0x43203a726f727245,%rax
  4029b4:	3a 20 43 
  4029b7:	48 89 03             	mov    %rax,(%rbx)
  4029ba:	48 b8 6c 69 65 6e 74 	movabs $0x6e7520746e65696c,%rax
  4029c1:	20 75 6e 
  4029c4:	48 89 43 08          	mov    %rax,0x8(%rbx)
  4029c8:	48 b8 61 62 6c 65 20 	movabs $0x206f7420656c6261,%rax
  4029cf:	74 6f 20 
  4029d2:	48 89 43 10          	mov    %rax,0x10(%rbx)
  4029d6:	48 b8 72 65 61 64 20 	movabs $0x7269662064616572,%rax
  4029dd:	66 69 72 
  4029e0:	48 89 43 18          	mov    %rax,0x18(%rbx)
  4029e4:	48 b8 73 74 20 68 65 	movabs $0x6564616568207473,%rax
  4029eb:	61 64 65 
  4029ee:	48 89 43 20          	mov    %rax,0x20(%rbx)
  4029f2:	48 b8 72 20 66 72 6f 	movabs $0x72206d6f72662072,%rax
  4029f9:	6d 20 72 
  4029fc:	48 89 43 28          	mov    %rax,0x28(%rbx)
  402a00:	48 b8 65 73 75 6c 74 	movabs $0x657320746c757365,%rax
  402a07:	20 73 65 
  402a0a:	48 89 43 30          	mov    %rax,0x30(%rbx)
  402a0e:	c7 43 38 72 76 65 72 	movl   $0x72657672,0x38(%rbx)
  402a15:	c6 43 3c 00          	movb   $0x0,0x3c(%rbx)
  402a19:	89 ef                	mov    %ebp,%edi
  402a1b:	e8 10 e3 ff ff       	callq  400d30 <close@plt>
  402a20:	b8 ff ff ff ff       	mov    $0xffffffff,%eax
  402a25:	e9 79 02 00 00       	jmpq   402ca3 <submitr+0x746>
  402a2a:	4c 8d 84 24 40 80 00 	lea    0x8040(%rsp),%r8
  402a31:	00 
  402a32:	48 8d 4c 24 1c       	lea    0x1c(%rsp),%rcx
  402a37:	48 8d 94 24 40 60 00 	lea    0x6040(%rsp),%rdx
  402a3e:	00 
  402a3f:	be 2f 39 40 00       	mov    $0x40392f,%esi
  402a44:	48 8d bc 24 40 20 00 	lea    0x2040(%rsp),%rdi
  402a4b:	00 
  402a4c:	b8 00 00 00 00       	mov    $0x0,%eax
  402a51:	e8 8a e3 ff ff       	callq  400de0 <__isoc99_sscanf@plt>
  402a56:	e9 95 00 00 00       	jmpq   402af0 <submitr+0x593>
  402a5b:	ba 00 20 00 00       	mov    $0x2000,%edx
  402a60:	48 8d b4 24 40 20 00 	lea    0x2040(%rsp),%rsi
  402a67:	00 
  402a68:	48 8d 7c 24 30       	lea    0x30(%rsp),%rdi
  402a6d:	e8 34 f9 ff ff       	callq  4023a6 <rio_readlineb>
  402a72:	48 85 c0             	test   %rax,%rax
  402a75:	7f 79                	jg     402af0 <submitr+0x593>
  402a77:	48 b8 45 72 72 6f 72 	movabs $0x43203a726f727245,%rax
  402a7e:	3a 20 43 
  402a81:	48 89 03             	mov    %rax,(%rbx)
  402a84:	48 b8 6c 69 65 6e 74 	movabs $0x6e7520746e65696c,%rax
  402a8b:	20 75 6e 
  402a8e:	48 89 43 08          	mov    %rax,0x8(%rbx)
  402a92:	48 b8 61 62 6c 65 20 	movabs $0x206f7420656c6261,%rax
  402a99:	74 6f 20 
  402a9c:	48 89 43 10          	mov    %rax,0x10(%rbx)
  402aa0:	48 b8 72 65 61 64 20 	movabs $0x6165682064616572,%rax
  402aa7:	68 65 61 
  402aaa:	48 89 43 18          	mov    %rax,0x18(%rbx)
  402aae:	48 b8 64 65 72 73 20 	movabs $0x6f72662073726564,%rax
  402ab5:	66 72 6f 
  402ab8:	48 89 43 20          	mov    %rax,0x20(%rbx)
  402abc:	48 b8 6d 20 74 68 65 	movabs $0x657220656874206d,%rax
  402ac3:	20 72 65 
  402ac6:	48 89 43 28          	mov    %rax,0x28(%rbx)
  402aca:	48 b8 73 75 6c 74 20 	movabs $0x72657320746c7573,%rax
  402ad1:	73 65 72 
  402ad4:	48 89 43 30          	mov    %rax,0x30(%rbx)
  402ad8:	c7 43 38 76 65 72 00 	movl   $0x726576,0x38(%rbx)
  402adf:	89 ef                	mov    %ebp,%edi
  402ae1:	e8 4a e2 ff ff       	callq  400d30 <close@plt>
  402ae6:	b8 ff ff ff ff       	mov    $0xffffffff,%eax
  402aeb:	e9 b3 01 00 00       	jmpq   402ca3 <submitr+0x746>
  402af0:	0f b6 94 24 40 20 00 	movzbl 0x2040(%rsp),%edx
  402af7:	00 
  402af8:	b8 0d 00 00 00       	mov    $0xd,%eax
  402afd:	29 d0                	sub    %edx,%eax
  402aff:	75 1b                	jne    402b1c <submitr+0x5bf>
  402b01:	0f b6 94 24 41 20 00 	movzbl 0x2041(%rsp),%edx
  402b08:	00 
  402b09:	b8 0a 00 00 00       	mov    $0xa,%eax
  402b0e:	29 d0                	sub    %edx,%eax
  402b10:	75 0a                	jne    402b1c <submitr+0x5bf>
  402b12:	0f b6 84 24 42 20 00 	movzbl 0x2042(%rsp),%eax
  402b19:	00 
  402b1a:	f7 d8                	neg    %eax
  402b1c:	85 c0                	test   %eax,%eax
  402b1e:	0f 85 37 ff ff ff    	jne    402a5b <submitr+0x4fe>
  402b24:	ba 00 20 00 00       	mov    $0x2000,%edx
  402b29:	48 8d b4 24 40 20 00 	lea    0x2040(%rsp),%rsi
  402b30:	00 
  402b31:	48 8d 7c 24 30       	lea    0x30(%rsp),%rdi
  402b36:	e8 6b f8 ff ff       	callq  4023a6 <rio_readlineb>
  402b3b:	48 85 c0             	test   %rax,%rax
  402b3e:	0f 8f 83 00 00 00    	jg     402bc7 <submitr+0x66a>
  402b44:	48 b8 45 72 72 6f 72 	movabs $0x43203a726f727245,%rax
  402b4b:	3a 20 43 
  402b4e:	48 89 03             	mov    %rax,(%rbx)
  402b51:	48 b8 6c 69 65 6e 74 	movabs $0x6e7520746e65696c,%rax
  402b58:	20 75 6e 
  402b5b:	48 89 43 08          	mov    %rax,0x8(%rbx)
  402b5f:	48 b8 61 62 6c 65 20 	movabs $0x206f7420656c6261,%rax
  402b66:	74 6f 20 
  402b69:	48 89 43 10          	mov    %rax,0x10(%rbx)
  402b6d:	48 b8 72 65 61 64 20 	movabs $0x6174732064616572,%rax
  402b74:	73 74 61 
  402b77:	48 89 43 18          	mov    %rax,0x18(%rbx)
  402b7b:	48 b8 74 75 73 20 6d 	movabs $0x7373656d20737574,%rax
  402b82:	65 73 73 
  402b85:	48 89 43 20          	mov    %rax,0x20(%rbx)
  402b89:	48 b8 61 67 65 20 66 	movabs $0x6d6f726620656761,%rax
  402b90:	72 6f 6d 
  402b93:	48 89 43 28          	mov    %rax,0x28(%rbx)
  402b97:	48 b8 20 72 65 73 75 	movabs $0x20746c7573657220,%rax
  402b9e:	6c 74 20 
  402ba1:	48 89 43 30          	mov    %rax,0x30(%rbx)
  402ba5:	c7 43 38 73 65 72 76 	movl   $0x76726573,0x38(%rbx)
  402bac:	66 c7 43 3c 65 72    	movw   $0x7265,0x3c(%rbx)
  402bb2:	c6 43 3e 00          	movb   $0x0,0x3e(%rbx)
  402bb6:	89 ef                	mov    %ebp,%edi
  402bb8:	e8 73 e1 ff ff       	callq  400d30 <close@plt>
  402bbd:	b8 ff ff ff ff       	mov    $0xffffffff,%eax
  402bc2:	e9 dc 00 00 00       	jmpq   402ca3 <submitr+0x746>
  402bc7:	44 8b 44 24 1c       	mov    0x1c(%rsp),%r8d
  402bcc:	41 81 f8 c8 00 00 00 	cmp    $0xc8,%r8d
  402bd3:	74 37                	je     402c0c <submitr+0x6af>
  402bd5:	4c 8d 8c 24 40 80 00 	lea    0x8040(%rsp),%r9
  402bdc:	00 
  402bdd:	b9 f8 38 40 00       	mov    $0x4038f8,%ecx
  402be2:	48 c7 c2 ff ff ff ff 	mov    $0xffffffffffffffff,%rdx
  402be9:	be 01 00 00 00       	mov    $0x1,%esi
  402bee:	48 89 df             	mov    %rbx,%rdi
  402bf1:	b8 00 00 00 00       	mov    $0x0,%eax
  402bf6:	e8 85 e2 ff ff       	callq  400e80 <__sprintf_chk@plt>
  402bfb:	89 ef                	mov    %ebp,%edi
  402bfd:	e8 2e e1 ff ff       	callq  400d30 <close@plt>
  402c02:	b8 ff ff ff ff       	mov    $0xffffffff,%eax
  402c07:	e9 97 00 00 00       	jmpq   402ca3 <submitr+0x746>
  402c0c:	48 8d b4 24 40 20 00 	lea    0x2040(%rsp),%rsi
  402c13:	00 
  402c14:	48 89 df             	mov    %rbx,%rdi
  402c17:	e8 a4 e0 ff ff       	callq  400cc0 <strcpy@plt>
  402c1c:	89 ef                	mov    %ebp,%edi
  402c1e:	e8 0d e1 ff ff       	callq  400d30 <close@plt>
  402c23:	0f b6 03             	movzbl (%rbx),%eax
  402c26:	ba 4f 00 00 00       	mov    $0x4f,%edx
  402c2b:	29 c2                	sub    %eax,%edx
  402c2d:	75 22                	jne    402c51 <submitr+0x6f4>
  402c2f:	0f b6 4b 01          	movzbl 0x1(%rbx),%ecx
  402c33:	b8 4b 00 00 00       	mov    $0x4b,%eax
  402c38:	29 c8                	sub    %ecx,%eax
  402c3a:	75 17                	jne    402c53 <submitr+0x6f6>
  402c3c:	0f b6 4b 02          	movzbl 0x2(%rbx),%ecx
  402c40:	b8 0a 00 00 00       	mov    $0xa,%eax
  402c45:	29 c8                	sub    %ecx,%eax
  402c47:	75 0a                	jne    402c53 <submitr+0x6f6>
  402c49:	0f b6 43 03          	movzbl 0x3(%rbx),%eax
  402c4d:	f7 d8                	neg    %eax
  402c4f:	eb 02                	jmp    402c53 <submitr+0x6f6>
  402c51:	89 d0                	mov    %edx,%eax
  402c53:	85 c0                	test   %eax,%eax
  402c55:	74 40                	je     402c97 <submitr+0x73a>
  402c57:	bf 40 39 40 00       	mov    $0x403940,%edi
  402c5c:	b9 05 00 00 00       	mov    $0x5,%ecx
  402c61:	48 89 de             	mov    %rbx,%rsi
  402c64:	f3 a6                	repz cmpsb %es:(%rdi),%ds:(%rsi)
  402c66:	0f 97 c0             	seta   %al
  402c69:	0f 92 c1             	setb   %cl
  402c6c:	29 c8                	sub    %ecx,%eax
  402c6e:	0f be c0             	movsbl %al,%eax
  402c71:	85 c0                	test   %eax,%eax
  402c73:	74 2e                	je     402ca3 <submitr+0x746>
  402c75:	85 d2                	test   %edx,%edx
  402c77:	75 13                	jne    402c8c <submitr+0x72f>
  402c79:	0f b6 43 01          	movzbl 0x1(%rbx),%eax
  402c7d:	ba 4b 00 00 00       	mov    $0x4b,%edx
  402c82:	29 c2                	sub    %eax,%edx
  402c84:	75 06                	jne    402c8c <submitr+0x72f>
  402c86:	0f b6 53 02          	movzbl 0x2(%rbx),%edx
  402c8a:	f7 da                	neg    %edx
  402c8c:	85 d2                	test   %edx,%edx
  402c8e:	75 0e                	jne    402c9e <submitr+0x741>
  402c90:	b8 00 00 00 00       	mov    $0x0,%eax
  402c95:	eb 0c                	jmp    402ca3 <submitr+0x746>
  402c97:	b8 00 00 00 00       	mov    $0x0,%eax
  402c9c:	eb 05                	jmp    402ca3 <submitr+0x746>
  402c9e:	b8 ff ff ff ff       	mov    $0xffffffff,%eax
  402ca3:	48 8b 9c 24 48 a0 00 	mov    0xa048(%rsp),%rbx
  402caa:	00 
  402cab:	64 48 33 1c 25 28 00 	xor    %fs:0x28,%rbx
  402cb2:	00 00 
  402cb4:	74 05                	je     402cbb <submitr+0x75e>
  402cb6:	e8 35 e0 ff ff       	callq  400cf0 <__stack_chk_fail@plt>
  402cbb:	48 81 c4 58 a0 00 00 	add    $0xa058,%rsp
  402cc2:	5b                   	pop    %rbx
  402cc3:	5d                   	pop    %rbp
  402cc4:	41 5c                	pop    %r12
  402cc6:	41 5d                	pop    %r13
  402cc8:	41 5e                	pop    %r14
  402cca:	41 5f                	pop    %r15
  402ccc:	c3                   	retq   

0000000000402ccd <init_timeout>:
  402ccd:	85 ff                	test   %edi,%edi
  402ccf:	74 23                	je     402cf4 <init_timeout+0x27>
  402cd1:	53                   	push   %rbx
  402cd2:	89 fb                	mov    %edi,%ebx
  402cd4:	85 ff                	test   %edi,%edi
  402cd6:	79 05                	jns    402cdd <init_timeout+0x10>
  402cd8:	bb 00 00 00 00       	mov    $0x0,%ebx
  402cdd:	be 91 22 40 00       	mov    $0x402291,%esi
  402ce2:	bf 0e 00 00 00       	mov    $0xe,%edi
  402ce7:	e8 74 e0 ff ff       	callq  400d60 <signal@plt>
  402cec:	89 df                	mov    %ebx,%edi
  402cee:	e8 2d e0 ff ff       	callq  400d20 <alarm@plt>
  402cf3:	5b                   	pop    %rbx
  402cf4:	f3 c3                	repz retq 

0000000000402cf6 <init_driver>:
  402cf6:	55                   	push   %rbp
  402cf7:	53                   	push   %rbx
  402cf8:	48 83 ec 28          	sub    $0x28,%rsp
  402cfc:	48 89 fd             	mov    %rdi,%rbp
  402cff:	64 48 8b 04 25 28 00 	mov    %fs:0x28,%rax
  402d06:	00 00 
  402d08:	48 89 44 24 18       	mov    %rax,0x18(%rsp)
  402d0d:	31 c0                	xor    %eax,%eax
  402d0f:	be 01 00 00 00       	mov    $0x1,%esi
  402d14:	bf 0d 00 00 00       	mov    $0xd,%edi
  402d19:	e8 42 e0 ff ff       	callq  400d60 <signal@plt>
  402d1e:	be 01 00 00 00       	mov    $0x1,%esi
  402d23:	bf 1d 00 00 00       	mov    $0x1d,%edi
  402d28:	e8 33 e0 ff ff       	callq  400d60 <signal@plt>
  402d2d:	be 01 00 00 00       	mov    $0x1,%esi
  402d32:	bf 1d 00 00 00       	mov    $0x1d,%edi
  402d37:	e8 24 e0 ff ff       	callq  400d60 <signal@plt>
  402d3c:	ba 00 00 00 00       	mov    $0x0,%edx
  402d41:	be 01 00 00 00       	mov    $0x1,%esi
  402d46:	bf 02 00 00 00       	mov    $0x2,%edi
  402d4b:	e8 40 e1 ff ff       	callq  400e90 <socket@plt>
  402d50:	85 c0                	test   %eax,%eax
  402d52:	79 4f                	jns    402da3 <init_driver+0xad>
  402d54:	48 b8 45 72 72 6f 72 	movabs $0x43203a726f727245,%rax
  402d5b:	3a 20 43 
  402d5e:	48 89 45 00          	mov    %rax,0x0(%rbp)
  402d62:	48 b8 6c 69 65 6e 74 	movabs $0x6e7520746e65696c,%rax
  402d69:	20 75 6e 
  402d6c:	48 89 45 08          	mov    %rax,0x8(%rbp)
  402d70:	48 b8 61 62 6c 65 20 	movabs $0x206f7420656c6261,%rax
  402d77:	74 6f 20 
  402d7a:	48 89 45 10          	mov    %rax,0x10(%rbp)
  402d7e:	48 b8 63 72 65 61 74 	movabs $0x7320657461657263,%rax
  402d85:	65 20 73 
  402d88:	48 89 45 18          	mov    %rax,0x18(%rbp)
  402d8c:	c7 45 20 6f 63 6b 65 	movl   $0x656b636f,0x20(%rbp)
  402d93:	66 c7 45 24 74 00    	movw   $0x74,0x24(%rbp)
  402d99:	b8 ff ff ff ff       	mov    $0xffffffff,%eax
  402d9e:	e9 2a 01 00 00       	jmpq   402ecd <init_driver+0x1d7>
  402da3:	89 c3                	mov    %eax,%ebx
  402da5:	bf 45 39 40 00       	mov    $0x403945,%edi
  402daa:	e8 c1 df ff ff       	callq  400d70 <gethostbyname@plt>
  402daf:	48 85 c0             	test   %rax,%rax
  402db2:	75 68                	jne    402e1c <init_driver+0x126>
  402db4:	48 b8 45 72 72 6f 72 	movabs $0x44203a726f727245,%rax
  402dbb:	3a 20 44 
  402dbe:	48 89 45 00          	mov    %rax,0x0(%rbp)
  402dc2:	48 b8 4e 53 20 69 73 	movabs $0x6e7520736920534e,%rax
  402dc9:	20 75 6e 
  402dcc:	48 89 45 08          	mov    %rax,0x8(%rbp)
  402dd0:	48 b8 61 62 6c 65 20 	movabs $0x206f7420656c6261,%rax
  402dd7:	74 6f 20 
  402dda:	48 89 45 10          	mov    %rax,0x10(%rbp)
  402dde:	48 b8 72 65 73 6f 6c 	movabs $0x2065766c6f736572,%rax
  402de5:	76 65 20 
  402de8:	48 89 45 18          	mov    %rax,0x18(%rbp)
  402dec:	48 b8 73 65 72 76 65 	movabs $0x6120726576726573,%rax
  402df3:	72 20 61 
  402df6:	48 89 45 20          	mov    %rax,0x20(%rbp)
  402dfa:	c7 45 28 64 64 72 65 	movl   $0x65726464,0x28(%rbp)
  402e01:	66 c7 45 2c 73 73    	movw   $0x7373,0x2c(%rbp)
  402e07:	c6 45 2e 00          	movb   $0x0,0x2e(%rbp)
  402e0b:	89 df                	mov    %ebx,%edi
  402e0d:	e8 1e df ff ff       	callq  400d30 <close@plt>
  402e12:	b8 ff ff ff ff       	mov    $0xffffffff,%eax
  402e17:	e9 b1 00 00 00       	jmpq   402ecd <init_driver+0x1d7>
  402e1c:	48 c7 04 24 00 00 00 	movq   $0x0,(%rsp)
  402e23:	00 
  402e24:	48 c7 44 24 08 00 00 	movq   $0x0,0x8(%rsp)
  402e2b:	00 00 
  402e2d:	66 c7 04 24 02 00    	movw   $0x2,(%rsp)
  402e33:	48 63 50 14          	movslq 0x14(%rax),%rdx
  402e37:	48 8b 40 18          	mov    0x18(%rax),%rax
  402e3b:	48 8b 30             	mov    (%rax),%rsi
  402e3e:	48 8d 7c 24 04       	lea    0x4(%rsp),%rdi
  402e43:	b9 0c 00 00 00       	mov    $0xc,%ecx
  402e48:	e8 33 df ff ff       	callq  400d80 <__memmove_chk@plt>
  402e4d:	66 c7 44 24 02 3c 9a 	movw   $0x9a3c,0x2(%rsp)
  402e54:	ba 10 00 00 00       	mov    $0x10,%edx
  402e59:	48 89 e6             	mov    %rsp,%rsi
  402e5c:	89 df                	mov    %ebx,%edi
  402e5e:	e8 fd df ff ff       	callq  400e60 <connect@plt>
  402e63:	85 c0                	test   %eax,%eax
  402e65:	79 50                	jns    402eb7 <init_driver+0x1c1>
  402e67:	48 b8 45 72 72 6f 72 	movabs $0x55203a726f727245,%rax
  402e6e:	3a 20 55 
  402e71:	48 89 45 00          	mov    %rax,0x0(%rbp)
  402e75:	48 b8 6e 61 62 6c 65 	movabs $0x6f7420656c62616e,%rax
  402e7c:	20 74 6f 
  402e7f:	48 89 45 08          	mov    %rax,0x8(%rbp)
  402e83:	48 b8 20 63 6f 6e 6e 	movabs $0x7463656e6e6f6320,%rax
  402e8a:	65 63 74 
  402e8d:	48 89 45 10          	mov    %rax,0x10(%rbp)
  402e91:	48 b8 20 74 6f 20 73 	movabs $0x76726573206f7420,%rax
  402e98:	65 72 76 
  402e9b:	48 89 45 18          	mov    %rax,0x18(%rbp)
  402e9f:	66 c7 45 20 65 72    	movw   $0x7265,0x20(%rbp)
  402ea5:	c6 45 22 00          	movb   $0x0,0x22(%rbp)
  402ea9:	89 df                	mov    %ebx,%edi
  402eab:	e8 80 de ff ff       	callq  400d30 <close@plt>
  402eb0:	b8 ff ff ff ff       	mov    $0xffffffff,%eax
  402eb5:	eb 16                	jmp    402ecd <init_driver+0x1d7>
  402eb7:	89 df                	mov    %ebx,%edi
  402eb9:	e8 72 de ff ff       	callq  400d30 <close@plt>
  402ebe:	66 c7 45 00 4f 4b    	movw   $0x4b4f,0x0(%rbp)
  402ec4:	c6 45 02 00          	movb   $0x0,0x2(%rbp)
  402ec8:	b8 00 00 00 00       	mov    $0x0,%eax
  402ecd:	48 8b 4c 24 18       	mov    0x18(%rsp),%rcx
  402ed2:	64 48 33 0c 25 28 00 	xor    %fs:0x28,%rcx
  402ed9:	00 00 
  402edb:	74 05                	je     402ee2 <init_driver+0x1ec>
  402edd:	e8 0e de ff ff       	callq  400cf0 <__stack_chk_fail@plt>
  402ee2:	48 83 c4 28          	add    $0x28,%rsp
  402ee6:	5b                   	pop    %rbx
  402ee7:	5d                   	pop    %rbp
  402ee8:	c3                   	retq   

0000000000402ee9 <driver_post>:
  402ee9:	53                   	push   %rbx
  402eea:	4c 89 cb             	mov    %r9,%rbx
  402eed:	45 85 c0             	test   %r8d,%r8d
  402ef0:	74 27                	je     402f19 <driver_post+0x30>
  402ef2:	48 89 ca             	mov    %rcx,%rdx
  402ef5:	be 5c 39 40 00       	mov    $0x40395c,%esi
  402efa:	bf 01 00 00 00       	mov    $0x1,%edi
  402eff:	b8 00 00 00 00       	mov    $0x0,%eax
  402f04:	e8 f7 de ff ff       	callq  400e00 <__printf_chk@plt>
  402f09:	66 c7 03 4f 4b       	movw   $0x4b4f,(%rbx)
  402f0e:	c6 43 02 00          	movb   $0x0,0x2(%rbx)
  402f12:	b8 00 00 00 00       	mov    $0x0,%eax
  402f17:	eb 3f                	jmp    402f58 <driver_post+0x6f>
  402f19:	48 85 ff             	test   %rdi,%rdi
  402f1c:	74 2c                	je     402f4a <driver_post+0x61>
  402f1e:	80 3f 00             	cmpb   $0x0,(%rdi)
  402f21:	74 27                	je     402f4a <driver_post+0x61>
  402f23:	48 83 ec 08          	sub    $0x8,%rsp
  402f27:	41 51                	push   %r9
  402f29:	49 89 c9             	mov    %rcx,%r9
  402f2c:	49 89 d0             	mov    %rdx,%r8
  402f2f:	48 89 f9             	mov    %rdi,%rcx
  402f32:	48 89 f2             	mov    %rsi,%rdx
  402f35:	be 9a 3c 00 00       	mov    $0x3c9a,%esi
  402f3a:	bf 45 39 40 00       	mov    $0x403945,%edi
  402f3f:	e8 19 f6 ff ff       	callq  40255d <submitr>
  402f44:	48 83 c4 10          	add    $0x10,%rsp
  402f48:	eb 0e                	jmp    402f58 <driver_post+0x6f>
  402f4a:	66 c7 03 4f 4b       	movw   $0x4b4f,(%rbx)
  402f4f:	c6 43 02 00          	movb   $0x0,0x2(%rbx)
  402f53:	b8 00 00 00 00       	mov    $0x0,%eax
  402f58:	5b                   	pop    %rbx
  402f59:	c3                   	retq   

0000000000402f5a <check>:
  402f5a:	89 f8                	mov    %edi,%eax
  402f5c:	c1 e8 1c             	shr    $0x1c,%eax
  402f5f:	85 c0                	test   %eax,%eax
  402f61:	74 1d                	je     402f80 <check+0x26>
  402f63:	b9 00 00 00 00       	mov    $0x0,%ecx
  402f68:	eb 0b                	jmp    402f75 <check+0x1b>
  402f6a:	89 f8                	mov    %edi,%eax
  402f6c:	d3 e8                	shr    %cl,%eax
  402f6e:	3c 0a                	cmp    $0xa,%al
  402f70:	74 14                	je     402f86 <check+0x2c>
  402f72:	83 c1 08             	add    $0x8,%ecx
  402f75:	83 f9 1f             	cmp    $0x1f,%ecx
  402f78:	7e f0                	jle    402f6a <check+0x10>
  402f7a:	b8 01 00 00 00       	mov    $0x1,%eax
  402f7f:	c3                   	retq   
  402f80:	b8 00 00 00 00       	mov    $0x0,%eax
  402f85:	c3                   	retq   
  402f86:	b8 00 00 00 00       	mov    $0x0,%eax
  402f8b:	c3                   	retq   

0000000000402f8c <gencookie>:
  402f8c:	53                   	push   %rbx
  402f8d:	83 c7 01             	add    $0x1,%edi
  402f90:	e8 0b dd ff ff       	callq  400ca0 <srandom@plt>
  402f95:	e8 26 de ff ff       	callq  400dc0 <random@plt>
  402f9a:	89 c3                	mov    %eax,%ebx
  402f9c:	89 c7                	mov    %eax,%edi
  402f9e:	e8 b7 ff ff ff       	callq  402f5a <check>
  402fa3:	85 c0                	test   %eax,%eax
  402fa5:	74 ee                	je     402f95 <gencookie+0x9>
  402fa7:	89 d8                	mov    %ebx,%eax
  402fa9:	5b                   	pop    %rbx
  402faa:	c3                   	retq   
  402fab:	0f 1f 44 00 00       	nopl   0x0(%rax,%rax,1)

0000000000402fb0 <__libc_csu_init>:
  402fb0:	41 57                	push   %r15
  402fb2:	41 56                	push   %r14
  402fb4:	41 89 ff             	mov    %edi,%r15d
  402fb7:	41 55                	push   %r13
  402fb9:	41 54                	push   %r12
  402fbb:	4c 8d 25 4e 1e 20 00 	lea    0x201e4e(%rip),%r12        # 604e10 <__frame_dummy_init_array_entry>
  402fc2:	55                   	push   %rbp
  402fc3:	48 8d 2d 4e 1e 20 00 	lea    0x201e4e(%rip),%rbp        # 604e18 <__init_array_end>
  402fca:	53                   	push   %rbx
  402fcb:	49 89 f6             	mov    %rsi,%r14
  402fce:	49 89 d5             	mov    %rdx,%r13
  402fd1:	4c 29 e5             	sub    %r12,%rbp
  402fd4:	48 83 ec 08          	sub    $0x8,%rsp
  402fd8:	48 c1 fd 03          	sar    $0x3,%rbp
  402fdc:	e8 67 dc ff ff       	callq  400c48 <_init>
  402fe1:	48 85 ed             	test   %rbp,%rbp
  402fe4:	74 20                	je     403006 <__libc_csu_init+0x56>
  402fe6:	31 db                	xor    %ebx,%ebx
  402fe8:	0f 1f 84 00 00 00 00 	nopl   0x0(%rax,%rax,1)
  402fef:	00 
  402ff0:	4c 89 ea             	mov    %r13,%rdx
  402ff3:	4c 89 f6             	mov    %r14,%rsi
  402ff6:	44 89 ff             	mov    %r15d,%edi
  402ff9:	41 ff 14 dc          	callq  *(%r12,%rbx,8)
  402ffd:	48 83 c3 01          	add    $0x1,%rbx
  403001:	48 39 eb             	cmp    %rbp,%rbx
  403004:	75 ea                	jne    402ff0 <__libc_csu_init+0x40>
  403006:	48 83 c4 08          	add    $0x8,%rsp
  40300a:	5b                   	pop    %rbx
  40300b:	5d                   	pop    %rbp
  40300c:	41 5c                	pop    %r12
  40300e:	41 5d                	pop    %r13
  403010:	41 5e                	pop    %r14
  403012:	41 5f                	pop    %r15
  403014:	c3                   	retq   
  403015:	90                   	nop
  403016:	66 2e 0f 1f 84 00 00 	nopw   %cs:0x0(%rax,%rax,1)
  40301d:	00 00 00 

0000000000403020 <__libc_csu_fini>:
  403020:	f3 c3                	repz retq 

Disassembly of section .fini:

0000000000403024 <_fini>:
  403024:	48 83 ec 08          	sub    $0x8,%rsp
  403028:	48 83 c4 08          	add    $0x8,%rsp
  40302c:	c3                   	retq   
